	.file	"test.cpp"
	.text
	.section	.text$_ZSt23__is_constant_evaluatedv,"x"
	.linkonce discard
	.globl	_ZSt23__is_constant_evaluatedv
	.def	_ZSt23__is_constant_evaluatedv;	.scl	2;	.type	32;	.endef
	.seh_proc	_ZSt23__is_constant_evaluatedv
_ZSt23__is_constant_evaluatedv:
.LFB1:
	pushq	%rbp
	.seh_pushreg	%rbp
	movq	%rsp, %rbp
	.seh_setframe	%rbp, 0
	.seh_endprologue
	movl	$0, %eax
	popq	%rbp
	ret
	.seh_endproc
	.section	.text$_ZnwyPv,"x"
	.linkonce discard
	.globl	_ZnwyPv
	.def	_ZnwyPv;	.scl	2;	.type	32;	.endef
	.seh_proc	_ZnwyPv
_ZnwyPv:
.LFB96:
	pushq	%rbp
	.seh_pushreg	%rbp
	movq	%rsp, %rbp
	.seh_setframe	%rbp, 0
	.seh_endprologue
	movq	%rcx, 16(%rbp)
	movq	%rdx, 24(%rbp)
	movq	24(%rbp), %rax
	popq	%rbp
	ret
	.seh_endproc
	.section	.text$_ZdlPvS_,"x"
	.linkonce discard
	.globl	_ZdlPvS_
	.def	_ZdlPvS_;	.scl	2;	.type	32;	.endef
	.seh_proc	_ZdlPvS_
_ZdlPvS_:
.LFB98:
	pushq	%rbp
	.seh_pushreg	%rbp
	movq	%rsp, %rbp
	.seh_setframe	%rbp, 0
	.seh_endprologue
	movq	%rcx, 16(%rbp)
	movq	%rdx, 24(%rbp)
	nop
	popq	%rbp
	ret
	.seh_endproc
	.section	.text$_ZNSt11char_traitsIcE6lengthEPKc,"x"
	.linkonce discard
	.globl	_ZNSt11char_traitsIcE6lengthEPKc
	.def	_ZNSt11char_traitsIcE6lengthEPKc;	.scl	2;	.type	32;	.endef
	.seh_proc	_ZNSt11char_traitsIcE6lengthEPKc
_ZNSt11char_traitsIcE6lengthEPKc:
.LFB175:
	pushq	%rbp
	.seh_pushreg	%rbp
	movq	%rsp, %rbp
	.seh_setframe	%rbp, 0
	subq	$32, %rsp
	.seh_stackalloc	32
	.seh_endprologue
	movq	%rcx, 16(%rbp)
	call	_ZSt23__is_constant_evaluatedv
	testb	%al, %al
	je	.L7
	movq	16(%rbp), %rax
	movq	%rax, %rcx
	call	_ZN9__gnu_cxx11char_traitsIcE6lengthEPKc
	jmp	.L8
.L7:
	movq	16(%rbp), %rax
	movq	%rax, %rcx
	call	strlen
	nop
.L8:
	addq	$32, %rsp
	popq	%rbp
	ret
	.seh_endproc
.lcomm _ZStL8__ioinit,1,1
	.section	.text$_ZNSt12_Vector_baseINSt7__cxx1112basic_stringIcSt11char_traitsIcESaIcEEESaIS5_EE12_Vector_implD1Ev,"x"
	.linkonce discard
	.align 2
	.globl	_ZNSt12_Vector_baseINSt7__cxx1112basic_stringIcSt11char_traitsIcESaIcEEESaIS5_EE12_Vector_implD1Ev
	.def	_ZNSt12_Vector_baseINSt7__cxx1112basic_stringIcSt11char_traitsIcESaIcEEESaIS5_EE12_Vector_implD1Ev;	.scl	2;	.type	32;	.endef
	.seh_proc	_ZNSt12_Vector_baseINSt7__cxx1112basic_stringIcSt11char_traitsIcESaIcEEESaIS5_EE12_Vector_implD1Ev
_ZNSt12_Vector_baseINSt7__cxx1112basic_stringIcSt11char_traitsIcESaIcEEESaIS5_EE12_Vector_implD1Ev:
.LFB2227:
	pushq	%rbp
	.seh_pushreg	%rbp
	movq	%rsp, %rbp
	.seh_setframe	%rbp, 0
	subq	$32, %rsp
	.seh_stackalloc	32
	.seh_endprologue
	movq	%rcx, 16(%rbp)
	movq	16(%rbp), %rax
	movq	%rax, %rcx
	call	_ZNSaINSt7__cxx1112basic_stringIcSt11char_traitsIcESaIcEEEED2Ev
	nop
	addq	$32, %rsp
	popq	%rbp
	ret
	.seh_endproc
	.section	.text$_ZNSt12_Vector_baseINSt7__cxx1112basic_stringIcSt11char_traitsIcESaIcEEESaIS5_EEC2Ev,"x"
	.linkonce discard
	.align 2
	.globl	_ZNSt12_Vector_baseINSt7__cxx1112basic_stringIcSt11char_traitsIcESaIcEEESaIS5_EEC2Ev
	.def	_ZNSt12_Vector_baseINSt7__cxx1112basic_stringIcSt11char_traitsIcESaIcEEESaIS5_EEC2Ev;	.scl	2;	.type	32;	.endef
	.seh_proc	_ZNSt12_Vector_baseINSt7__cxx1112basic_stringIcSt11char_traitsIcESaIcEEESaIS5_EEC2Ev
_ZNSt12_Vector_baseINSt7__cxx1112basic_stringIcSt11char_traitsIcESaIcEEESaIS5_EEC2Ev:
.LFB2228:
	pushq	%rbp
	.seh_pushreg	%rbp
	movq	%rsp, %rbp
	.seh_setframe	%rbp, 0
	subq	$32, %rsp
	.seh_stackalloc	32
	.seh_endprologue
	movq	%rcx, 16(%rbp)
	movq	16(%rbp), %rax
	movq	%rax, %rcx
	call	_ZNSt12_Vector_baseINSt7__cxx1112basic_stringIcSt11char_traitsIcESaIcEEESaIS5_EE12_Vector_implC1Ev
	nop
	addq	$32, %rsp
	popq	%rbp
	ret
	.seh_endproc
	.section	.text$_ZNSt6vectorINSt7__cxx1112basic_stringIcSt11char_traitsIcESaIcEEESaIS5_EEC1Ev,"x"
	.linkonce discard
	.align 2
	.globl	_ZNSt6vectorINSt7__cxx1112basic_stringIcSt11char_traitsIcESaIcEEESaIS5_EEC1Ev
	.def	_ZNSt6vectorINSt7__cxx1112basic_stringIcSt11char_traitsIcESaIcEEESaIS5_EEC1Ev;	.scl	2;	.type	32;	.endef
	.seh_proc	_ZNSt6vectorINSt7__cxx1112basic_stringIcSt11char_traitsIcESaIcEEESaIS5_EEC1Ev
_ZNSt6vectorINSt7__cxx1112basic_stringIcSt11char_traitsIcESaIcEEESaIS5_EEC1Ev:
.LFB2231:
	pushq	%rbp
	.seh_pushreg	%rbp
	movq	%rsp, %rbp
	.seh_setframe	%rbp, 0
	subq	$32, %rsp
	.seh_stackalloc	32
	.seh_endprologue
	movq	%rcx, 16(%rbp)
	movq	16(%rbp), %rax
	movq	%rax, %rcx
	call	_ZNSt12_Vector_baseINSt7__cxx1112basic_stringIcSt11char_traitsIcESaIcEEESaIS5_EEC2Ev
	nop
	addq	$32, %rsp
	popq	%rbp
	ret
	.seh_endproc
	.section	.text$_ZN9Installer4MenuD1Ev,"x"
	.linkonce discard
	.align 2
	.globl	_ZN9Installer4MenuD1Ev
	.def	_ZN9Installer4MenuD1Ev;	.scl	2;	.type	32;	.endef
	.seh_proc	_ZN9Installer4MenuD1Ev
_ZN9Installer4MenuD1Ev:
.LFB2234:
	pushq	%rbp
	.seh_pushreg	%rbp
	movq	%rsp, %rbp
	.seh_setframe	%rbp, 0
	subq	$32, %rsp
	.seh_stackalloc	32
	.seh_endprologue
	movq	%rcx, 16(%rbp)
	movq	16(%rbp), %rax
	addq	$32, %rax
	movq	%rax, %rcx
	call	_ZNSt6vectorINSt7__cxx1112basic_stringIcSt11char_traitsIcESaIcEEESaIS5_EED1Ev
	movq	16(%rbp), %rax
	addq	$8, %rax
	movq	%rax, %rcx
	call	_ZNSt6vectorINSt7__cxx1112basic_stringIcSt11char_traitsIcESaIcEEESaIS5_EED1Ev
	nop
	addq	$32, %rsp
	popq	%rbp
	ret
	.seh_endproc
	.def	__main;	.scl	2;	.type	32;	.endef
	.section .rdata,"dr"
.LC0:
	.ascii "Options \0"
.LC1:
	.ascii "Value \0"
	.text
	.globl	main
	.def	main;	.scl	2;	.type	32;	.endef
	.seh_proc	main
main:
.LFB2221:
	pushq	%rbp
	.seh_pushreg	%rbp
	pushq	%rbx
	.seh_pushreg	%rbx
	subq	$344, %rsp
	.seh_stackalloc	344
	leaq	128(%rsp), %rbp
	.seh_setframe	%rbp, 128
	.seh_endprologue
	movl	%ecx, 240(%rbp)
	movq	%rdx, 248(%rbp)
	call	__main
	leaq	16(%rbp), %rax
	movq	%rax, %rcx
	call	_ZNSt6vectorINSt7__cxx1112basic_stringIcSt11char_traitsIcESaIcEEESaIS5_EEC1Ev
	leaq	-16(%rbp), %rax
	movq	%rax, %rcx
	call	_ZNSt6vectorINSt7__cxx1112basic_stringIcSt11char_traitsIcESaIcEEESaIS5_EEC1Ev
	movl	$1, 204(%rbp)
	jmp	.L14
.L15:
	leaq	95(%rbp), %rax
	movq	%rax, %rcx
	call	_ZNSaIcEC1Ev
	movl	204(%rbp), %eax
	cltq
	leaq	.LC0(%rip), %rdx
	addq	%rax, %rdx
	leaq	95(%rbp), %rcx
	leaq	48(%rbp), %rax
	movq	%rcx, %r8
	movq	%rax, %rcx
.LEHB0:
	call	_ZNSt7__cxx1112basic_stringIcSt11char_traitsIcESaIcEEC1IS3_EEPKcRKS3_
.LEHE0:
	leaq	48(%rbp), %rdx
	leaq	16(%rbp), %rax
	movq	%rax, %rcx
.LEHB1:
	call	_ZNSt6vectorINSt7__cxx1112basic_stringIcSt11char_traitsIcESaIcEEESaIS5_EE9push_backEOS5_
.LEHE1:
	leaq	48(%rbp), %rax
	movq	%rax, %rcx
	call	_ZNSt7__cxx1112basic_stringIcSt11char_traitsIcESaIcEED1Ev
	leaq	95(%rbp), %rax
	movq	%rax, %rcx
	call	_ZNSaIcED1Ev
	leaq	143(%rbp), %rax
	movq	%rax, %rcx
	call	_ZNSaIcEC1Ev
	movl	204(%rbp), %eax
	cltq
	leaq	.LC1(%rip), %rdx
	addq	%rax, %rdx
	leaq	143(%rbp), %rcx
	leaq	96(%rbp), %rax
	movq	%rcx, %r8
	movq	%rax, %rcx
.LEHB2:
	call	_ZNSt7__cxx1112basic_stringIcSt11char_traitsIcESaIcEEC1IS3_EEPKcRKS3_
.LEHE2:
	leaq	96(%rbp), %rdx
	leaq	-16(%rbp), %rax
	movq	%rax, %rcx
.LEHB3:
	call	_ZNSt6vectorINSt7__cxx1112basic_stringIcSt11char_traitsIcESaIcEEESaIS5_EE9push_backEOS5_
.LEHE3:
	leaq	96(%rbp), %rax
	movq	%rax, %rcx
	call	_ZNSt7__cxx1112basic_stringIcSt11char_traitsIcESaIcEED1Ev
	leaq	143(%rbp), %rax
	movq	%rax, %rcx
	call	_ZNSaIcED1Ev
	addl	$1, 204(%rbp)
.L14:
	cmpl	$4, 204(%rbp)
	jle	.L15
	leaq	-16(%rbp), %rdx
	leaq	144(%rbp), %rax
	movq	%rax, %rcx
.LEHB4:
	call	_ZNSt6vectorINSt7__cxx1112basic_stringIcSt11char_traitsIcESaIcEEESaIS5_EEC1ERKS7_
.LEHE4:
	leaq	16(%rbp), %rdx
	leaq	176(%rbp), %rax
	movq	%rax, %rcx
.LEHB5:
	call	_ZNSt6vectorINSt7__cxx1112basic_stringIcSt11char_traitsIcESaIcEEESaIS5_EEC1ERKS7_
.LEHE5:
	leaq	144(%rbp), %rcx
	leaq	176(%rbp), %rdx
	leaq	-80(%rbp), %rax
	movq	%rcx, %r8
	movq	%rax, %rcx
.LEHB6:
	call	_ZN9Installer4MenuC1ESt6vectorINSt7__cxx1112basic_stringIcSt11char_traitsIcESaIcEEESaIS7_EES9_
.LEHE6:
	leaq	176(%rbp), %rax
	movq	%rax, %rcx
	call	_ZNSt6vectorINSt7__cxx1112basic_stringIcSt11char_traitsIcESaIcEEESaIS5_EED1Ev
	leaq	144(%rbp), %rax
	movq	%rax, %rcx
	call	_ZNSt6vectorINSt7__cxx1112basic_stringIcSt11char_traitsIcESaIcEEESaIS5_EED1Ev
	leaq	-84(%rbp), %rax
	movq	%rax, %rdx
	movq	.refptr._ZSt3cin(%rip), %rax
	movq	%rax, %rcx
.LEHB7:
	call	_ZNSirsERi
.LEHE7:
	movl	$0, %ebx
	leaq	-80(%rbp), %rax
	movq	%rax, %rcx
	call	_ZN9Installer4MenuD1Ev
	leaq	-16(%rbp), %rax
	movq	%rax, %rcx
	call	_ZNSt6vectorINSt7__cxx1112basic_stringIcSt11char_traitsIcESaIcEEESaIS5_EED1Ev
	leaq	16(%rbp), %rax
	movq	%rax, %rcx
	call	_ZNSt6vectorINSt7__cxx1112basic_stringIcSt11char_traitsIcESaIcEEESaIS5_EED1Ev
	movl	%ebx, %eax
	jmp	.L33
.L26:
	movq	%rax, %rbx
	leaq	48(%rbp), %rax
	movq	%rax, %rcx
	call	_ZNSt7__cxx1112basic_stringIcSt11char_traitsIcESaIcEED1Ev
	jmp	.L18
.L25:
	movq	%rax, %rbx
.L18:
	leaq	95(%rbp), %rax
	movq	%rax, %rcx
	call	_ZNSaIcED1Ev
	jmp	.L19
.L29:
	movq	%rax, %rbx
	leaq	96(%rbp), %rax
	movq	%rax, %rcx
	call	_ZNSt7__cxx1112basic_stringIcSt11char_traitsIcESaIcEED1Ev
	jmp	.L21
.L28:
	movq	%rax, %rbx
.L21:
	leaq	143(%rbp), %rax
	movq	%rax, %rcx
	call	_ZNSaIcED1Ev
	jmp	.L19
.L31:
	movq	%rax, %rbx
	leaq	176(%rbp), %rax
	movq	%rax, %rcx
	call	_ZNSt6vectorINSt7__cxx1112basic_stringIcSt11char_traitsIcESaIcEEESaIS5_EED1Ev
	jmp	.L23
.L30:
	movq	%rax, %rbx
.L23:
	leaq	144(%rbp), %rax
	movq	%rax, %rcx
	call	_ZNSt6vectorINSt7__cxx1112basic_stringIcSt11char_traitsIcESaIcEEESaIS5_EED1Ev
	jmp	.L19
.L32:
	movq	%rax, %rbx
	leaq	-80(%rbp), %rax
	movq	%rax, %rcx
	call	_ZN9Installer4MenuD1Ev
	jmp	.L19
.L27:
	movq	%rax, %rbx
.L19:
	leaq	-16(%rbp), %rax
	movq	%rax, %rcx
	call	_ZNSt6vectorINSt7__cxx1112basic_stringIcSt11char_traitsIcESaIcEEESaIS5_EED1Ev
	leaq	16(%rbp), %rax
	movq	%rax, %rcx
	call	_ZNSt6vectorINSt7__cxx1112basic_stringIcSt11char_traitsIcESaIcEEESaIS5_EED1Ev
	movq	%rbx, %rax
	movq	%rax, %rcx
.LEHB8:
	call	_Unwind_Resume
.LEHE8:
.L33:
	addq	$344, %rsp
	popq	%rbx
	popq	%rbp
	ret
	.def	__gxx_personality_seh0;	.scl	2;	.type	32;	.endef
	.seh_handler	__gxx_personality_seh0, @unwind, @except
	.seh_handlerdata
.LLSDA2221:
	.byte	0xff
	.byte	0xff
	.byte	0x1
	.uleb128 .LLSDACSE2221-.LLSDACSB2221
.LLSDACSB2221:
	.uleb128 .LEHB0-.LFB2221
	.uleb128 .LEHE0-.LEHB0
	.uleb128 .L25-.LFB2221
	.uleb128 0
	.uleb128 .LEHB1-.LFB2221
	.uleb128 .LEHE1-.LEHB1
	.uleb128 .L26-.LFB2221
	.uleb128 0
	.uleb128 .LEHB2-.LFB2221
	.uleb128 .LEHE2-.LEHB2
	.uleb128 .L28-.LFB2221
	.uleb128 0
	.uleb128 .LEHB3-.LFB2221
	.uleb128 .LEHE3-.LEHB3
	.uleb128 .L29-.LFB2221
	.uleb128 0
	.uleb128 .LEHB4-.LFB2221
	.uleb128 .LEHE4-.LEHB4
	.uleb128 .L27-.LFB2221
	.uleb128 0
	.uleb128 .LEHB5-.LFB2221
	.uleb128 .LEHE5-.LEHB5
	.uleb128 .L30-.LFB2221
	.uleb128 0
	.uleb128 .LEHB6-.LFB2221
	.uleb128 .LEHE6-.LEHB6
	.uleb128 .L31-.LFB2221
	.uleb128 0
	.uleb128 .LEHB7-.LFB2221
	.uleb128 .LEHE7-.LEHB7
	.uleb128 .L32-.LFB2221
	.uleb128 0
	.uleb128 .LEHB8-.LFB2221
	.uleb128 .LEHE8-.LEHB8
	.uleb128 0
	.uleb128 0
.LLSDACSE2221:
	.text
	.seh_endproc
	.section	.text$_ZN9__gnu_cxx11char_traitsIcE6lengthEPKc,"x"
	.linkonce discard
	.align 2
	.globl	_ZN9__gnu_cxx11char_traitsIcE6lengthEPKc
	.def	_ZN9__gnu_cxx11char_traitsIcE6lengthEPKc;	.scl	2;	.type	32;	.endef
	.seh_proc	_ZN9__gnu_cxx11char_traitsIcE6lengthEPKc
_ZN9__gnu_cxx11char_traitsIcE6lengthEPKc:
.LFB2235:
	pushq	%rbp
	.seh_pushreg	%rbp
	movq	%rsp, %rbp
	.seh_setframe	%rbp, 0
	subq	$48, %rsp
	.seh_stackalloc	48
	.seh_endprologue
	movq	%rcx, 16(%rbp)
	movq	$0, -8(%rbp)
	jmp	.L35
.L36:
	addq	$1, -8(%rbp)
.L35:
	movb	$0, -9(%rbp)
	movq	16(%rbp), %rdx
	movq	-8(%rbp), %rax
	leaq	(%rdx,%rax), %rcx
	leaq	-9(%rbp), %rax
	movq	%rax, %rdx
	call	_ZN9__gnu_cxx11char_traitsIcE2eqERKcS3_
	xorl	$1, %eax
	testb	%al, %al
	jne	.L36
	movq	-8(%rbp), %rax
	addq	$48, %rsp
	popq	%rbp
	ret
	.seh_endproc
	.section	.text$_ZNSt7__cxx1112basic_stringIcSt11char_traitsIcESaIcEE12_Alloc_hiderD1Ev,"x"
	.linkonce discard
	.align 2
	.globl	_ZNSt7__cxx1112basic_stringIcSt11char_traitsIcESaIcEE12_Alloc_hiderD1Ev
	.def	_ZNSt7__cxx1112basic_stringIcSt11char_traitsIcESaIcEE12_Alloc_hiderD1Ev;	.scl	2;	.type	32;	.endef
	.seh_proc	_ZNSt7__cxx1112basic_stringIcSt11char_traitsIcESaIcEE12_Alloc_hiderD1Ev
_ZNSt7__cxx1112basic_stringIcSt11char_traitsIcESaIcEE12_Alloc_hiderD1Ev:
.LFB2345:
	pushq	%rbp
	.seh_pushreg	%rbp
	movq	%rsp, %rbp
	.seh_setframe	%rbp, 0
	subq	$32, %rsp
	.seh_stackalloc	32
	.seh_endprologue
	movq	%rcx, 16(%rbp)
	movq	16(%rbp), %rax
	movq	%rax, %rcx
	call	_ZNSaIcED2Ev
	nop
	addq	$32, %rsp
	popq	%rbp
	ret
	.seh_endproc
	.section	.text$_ZNSt12_Vector_baseINSt7__cxx1112basic_stringIcSt11char_traitsIcESaIcEEESaIS5_EE12_Vector_implC1Ev,"x"
	.linkonce discard
	.align 2
	.globl	_ZNSt12_Vector_baseINSt7__cxx1112basic_stringIcSt11char_traitsIcESaIcEEESaIS5_EE12_Vector_implC1Ev
	.def	_ZNSt12_Vector_baseINSt7__cxx1112basic_stringIcSt11char_traitsIcESaIcEEESaIS5_EE12_Vector_implC1Ev;	.scl	2;	.type	32;	.endef
	.seh_proc	_ZNSt12_Vector_baseINSt7__cxx1112basic_stringIcSt11char_traitsIcESaIcEEESaIS5_EE12_Vector_implC1Ev
_ZNSt12_Vector_baseINSt7__cxx1112basic_stringIcSt11char_traitsIcESaIcEEESaIS5_EE12_Vector_implC1Ev:
.LFB2500:
	pushq	%rbp
	.seh_pushreg	%rbp
	movq	%rsp, %rbp
	.seh_setframe	%rbp, 0
	subq	$32, %rsp
	.seh_stackalloc	32
	.seh_endprologue
	movq	%rcx, 16(%rbp)
	movq	16(%rbp), %rax
	movq	%rax, %rcx
	call	_ZNSaINSt7__cxx1112basic_stringIcSt11char_traitsIcESaIcEEEEC2Ev
	movq	16(%rbp), %rax
	movq	%rax, %rcx
	call	_ZNSt12_Vector_baseINSt7__cxx1112basic_stringIcSt11char_traitsIcESaIcEEESaIS5_EE17_Vector_impl_dataC2Ev
	nop
	addq	$32, %rsp
	popq	%rbp
	ret
	.seh_endproc
	.section	.text$_ZNSaINSt7__cxx1112basic_stringIcSt11char_traitsIcESaIcEEEED2Ev,"x"
	.linkonce discard
	.align 2
	.globl	_ZNSaINSt7__cxx1112basic_stringIcSt11char_traitsIcESaIcEEEED2Ev
	.def	_ZNSaINSt7__cxx1112basic_stringIcSt11char_traitsIcESaIcEEEED2Ev;	.scl	2;	.type	32;	.endef
	.seh_proc	_ZNSaINSt7__cxx1112basic_stringIcSt11char_traitsIcESaIcEEEED2Ev
_ZNSaINSt7__cxx1112basic_stringIcSt11char_traitsIcESaIcEEEED2Ev:
.LFB2502:
	pushq	%rbp
	.seh_pushreg	%rbp
	movq	%rsp, %rbp
	.seh_setframe	%rbp, 0
	subq	$32, %rsp
	.seh_stackalloc	32
	.seh_endprologue
	movq	%rcx, 16(%rbp)
	movq	16(%rbp), %rax
	movq	%rax, %rcx
	call	_ZNSt15__new_allocatorINSt7__cxx1112basic_stringIcSt11char_traitsIcESaIcEEEED2Ev
	nop
	addq	$32, %rsp
	popq	%rbp
	ret
	.seh_endproc
	.section	.text$_ZNSaINSt7__cxx1112basic_stringIcSt11char_traitsIcESaIcEEEED1Ev,"x"
	.linkonce discard
	.align 2
	.globl	_ZNSaINSt7__cxx1112basic_stringIcSt11char_traitsIcESaIcEEEED1Ev
	.def	_ZNSaINSt7__cxx1112basic_stringIcSt11char_traitsIcESaIcEEEED1Ev;	.scl	2;	.type	32;	.endef
	.seh_proc	_ZNSaINSt7__cxx1112basic_stringIcSt11char_traitsIcESaIcEEEED1Ev
_ZNSaINSt7__cxx1112basic_stringIcSt11char_traitsIcESaIcEEEED1Ev:
.LFB2503:
	pushq	%rbp
	.seh_pushreg	%rbp
	movq	%rsp, %rbp
	.seh_setframe	%rbp, 0
	subq	$32, %rsp
	.seh_stackalloc	32
	.seh_endprologue
	movq	%rcx, 16(%rbp)
	movq	16(%rbp), %rax
	movq	%rax, %rcx
	call	_ZNSt15__new_allocatorINSt7__cxx1112basic_stringIcSt11char_traitsIcESaIcEEEED2Ev
	nop
	addq	$32, %rsp
	popq	%rbp
	ret
	.seh_endproc
	.section	.text$_ZNSt12_Vector_baseINSt7__cxx1112basic_stringIcSt11char_traitsIcESaIcEEESaIS5_EED2Ev,"x"
	.linkonce discard
	.align 2
	.globl	_ZNSt12_Vector_baseINSt7__cxx1112basic_stringIcSt11char_traitsIcESaIcEEESaIS5_EED2Ev
	.def	_ZNSt12_Vector_baseINSt7__cxx1112basic_stringIcSt11char_traitsIcESaIcEEESaIS5_EED2Ev;	.scl	2;	.type	32;	.endef
	.seh_proc	_ZNSt12_Vector_baseINSt7__cxx1112basic_stringIcSt11char_traitsIcESaIcEEESaIS5_EED2Ev
_ZNSt12_Vector_baseINSt7__cxx1112basic_stringIcSt11char_traitsIcESaIcEEESaIS5_EED2Ev:
.LFB2505:
	pushq	%rbp
	.seh_pushreg	%rbp
	movq	%rsp, %rbp
	.seh_setframe	%rbp, 0
	subq	$32, %rsp
	.seh_stackalloc	32
	.seh_endprologue
	movq	%rcx, 16(%rbp)
	movq	16(%rbp), %rax
	movq	16(%rax), %rdx
	movq	16(%rbp), %rax
	movq	(%rax), %rax
	subq	%rax, %rdx
	movq	%rdx, %rax
	sarq	$5, %rax
	movq	%rax, %rcx
	movq	16(%rbp), %rax
	movq	(%rax), %rdx
	movq	16(%rbp), %rax
	movq	%rcx, %r8
	movq	%rax, %rcx
	call	_ZNSt12_Vector_baseINSt7__cxx1112basic_stringIcSt11char_traitsIcESaIcEEESaIS5_EE13_M_deallocateEPS5_y
	movq	16(%rbp), %rax
	movq	%rax, %rcx
	call	_ZNSt12_Vector_baseINSt7__cxx1112basic_stringIcSt11char_traitsIcESaIcEEESaIS5_EE12_Vector_implD1Ev
	nop
	addq	$32, %rsp
	popq	%rbp
	ret
	.seh_handler	__gxx_personality_seh0, @unwind, @except
	.seh_handlerdata
.LLSDA2505:
	.byte	0xff
	.byte	0xff
	.byte	0x1
	.uleb128 .LLSDACSE2505-.LLSDACSB2505
.LLSDACSB2505:
.LLSDACSE2505:
	.section	.text$_ZNSt12_Vector_baseINSt7__cxx1112basic_stringIcSt11char_traitsIcESaIcEEESaIS5_EED2Ev,"x"
	.linkonce discard
	.seh_endproc
	.section	.text$_ZNSt6vectorINSt7__cxx1112basic_stringIcSt11char_traitsIcESaIcEEESaIS5_EED1Ev,"x"
	.linkonce discard
	.align 2
	.globl	_ZNSt6vectorINSt7__cxx1112basic_stringIcSt11char_traitsIcESaIcEEESaIS5_EED1Ev
	.def	_ZNSt6vectorINSt7__cxx1112basic_stringIcSt11char_traitsIcESaIcEEESaIS5_EED1Ev;	.scl	2;	.type	32;	.endef
	.seh_proc	_ZNSt6vectorINSt7__cxx1112basic_stringIcSt11char_traitsIcESaIcEEESaIS5_EED1Ev
_ZNSt6vectorINSt7__cxx1112basic_stringIcSt11char_traitsIcESaIcEEESaIS5_EED1Ev:
.LFB2509:
	pushq	%rbp
	.seh_pushreg	%rbp
	movq	%rsp, %rbp
	.seh_setframe	%rbp, 0
	subq	$32, %rsp
	.seh_stackalloc	32
	.seh_endprologue
	movq	%rcx, 16(%rbp)
	movq	16(%rbp), %rax
	movq	%rax, %rcx
	call	_ZNSt12_Vector_baseINSt7__cxx1112basic_stringIcSt11char_traitsIcESaIcEEESaIS5_EE19_M_get_Tp_allocatorEv
	movq	%rax, %rcx
	movq	16(%rbp), %rax
	movq	8(%rax), %rdx
	movq	16(%rbp), %rax
	movq	(%rax), %rax
	movq	%rcx, %r8
	movq	%rax, %rcx
	call	_ZSt8_DestroyIPNSt7__cxx1112basic_stringIcSt11char_traitsIcESaIcEEES5_EvT_S7_RSaIT0_E
	movq	16(%rbp), %rax
	movq	%rax, %rcx
	call	_ZNSt12_Vector_baseINSt7__cxx1112basic_stringIcSt11char_traitsIcESaIcEEESaIS5_EED2Ev
	nop
	addq	$32, %rsp
	popq	%rbp
	ret
	.seh_handler	__gxx_personality_seh0, @unwind, @except
	.seh_handlerdata
.LLSDA2509:
	.byte	0xff
	.byte	0xff
	.byte	0x1
	.uleb128 .LLSDACSE2509-.LLSDACSB2509
.LLSDACSB2509:
.LLSDACSE2509:
	.section	.text$_ZNSt6vectorINSt7__cxx1112basic_stringIcSt11char_traitsIcESaIcEEESaIS5_EED1Ev,"x"
	.linkonce discard
	.seh_endproc
	.section .rdata,"dr"
	.align 8
.LC2:
	.ascii "basic_string: construction from null is not valid\0"
	.section	.text$_ZNSt7__cxx1112basic_stringIcSt11char_traitsIcESaIcEEC1IS3_EEPKcRKS3_,"x"
	.linkonce discard
	.align 2
	.globl	_ZNSt7__cxx1112basic_stringIcSt11char_traitsIcESaIcEEC1IS3_EEPKcRKS3_
	.def	_ZNSt7__cxx1112basic_stringIcSt11char_traitsIcESaIcEEC1IS3_EEPKcRKS3_;	.scl	2;	.type	32;	.endef
	.seh_proc	_ZNSt7__cxx1112basic_stringIcSt11char_traitsIcESaIcEEC1IS3_EEPKcRKS3_
_ZNSt7__cxx1112basic_stringIcSt11char_traitsIcESaIcEEC1IS3_EEPKcRKS3_:
.LFB2512:
	pushq	%rbp
	.seh_pushreg	%rbp
	pushq	%rsi
	.seh_pushreg	%rsi
	pushq	%rbx
	.seh_pushreg	%rbx
	subq	$48, %rsp
	.seh_stackalloc	48
	leaq	48(%rsp), %rbp
	.seh_setframe	%rbp, 48
	.seh_endprologue
	movq	%rcx, 32(%rbp)
	movq	%rdx, 40(%rbp)
	movq	%r8, 48(%rbp)
	movq	32(%rbp), %rbx
	movq	32(%rbp), %rax
	movq	%rax, %rcx
	call	_ZNSt7__cxx1112basic_stringIcSt11char_traitsIcESaIcEE13_M_local_dataEv
	movq	48(%rbp), %rdx
	movq	%rdx, %r8
	movq	%rax, %rdx
	movq	%rbx, %rcx
	call	_ZNSt7__cxx1112basic_stringIcSt11char_traitsIcESaIcEE12_Alloc_hiderC1EPcRKS3_
	cmpq	$0, 40(%rbp)
	jne	.L45
	leaq	.LC2(%rip), %rax
	movq	%rax, %rcx
.LEHB9:
	call	_ZSt19__throw_logic_errorPKc
.L45:
	movq	40(%rbp), %rax
	movq	%rax, %rcx
	call	_ZNSt11char_traitsIcE6lengthEPKc
	movq	40(%rbp), %rdx
	addq	%rdx, %rax
	movq	%rax, -8(%rbp)
	movq	-8(%rbp), %rcx
	movq	40(%rbp), %rdx
	movq	32(%rbp), %rax
	movl	%esi, %r9d
	movq	%rcx, %r8
	movq	%rax, %rcx
	call	_ZNSt7__cxx1112basic_stringIcSt11char_traitsIcESaIcEE12_M_constructIPKcEEvT_S8_St20forward_iterator_tag
.LEHE9:
	jmp	.L48
.L47:
	movq	%rax, %rbx
	movq	32(%rbp), %rax
	movq	%rax, %rcx
	call	_ZNSt7__cxx1112basic_stringIcSt11char_traitsIcESaIcEE12_Alloc_hiderD1Ev
	movq	%rbx, %rax
	movq	%rax, %rcx
.LEHB10:
	call	_Unwind_Resume
	nop
.LEHE10:
.L48:
	addq	$48, %rsp
	popq	%rbx
	popq	%rsi
	popq	%rbp
	ret
	.seh_handler	__gxx_personality_seh0, @unwind, @except
	.seh_handlerdata
.LLSDA2512:
	.byte	0xff
	.byte	0xff
	.byte	0x1
	.uleb128 .LLSDACSE2512-.LLSDACSB2512
.LLSDACSB2512:
	.uleb128 .LEHB9-.LFB2512
	.uleb128 .LEHE9-.LEHB9
	.uleb128 .L47-.LFB2512
	.uleb128 0
	.uleb128 .LEHB10-.LFB2512
	.uleb128 .LEHE10-.LEHB10
	.uleb128 0
	.uleb128 0
.LLSDACSE2512:
	.section	.text$_ZNSt7__cxx1112basic_stringIcSt11char_traitsIcESaIcEEC1IS3_EEPKcRKS3_,"x"
	.linkonce discard
	.seh_endproc
	.section	.text$_ZNSt6vectorINSt7__cxx1112basic_stringIcSt11char_traitsIcESaIcEEESaIS5_EE9push_backEOS5_,"x"
	.linkonce discard
	.align 2
	.globl	_ZNSt6vectorINSt7__cxx1112basic_stringIcSt11char_traitsIcESaIcEEESaIS5_EE9push_backEOS5_
	.def	_ZNSt6vectorINSt7__cxx1112basic_stringIcSt11char_traitsIcESaIcEEESaIS5_EE9push_backEOS5_;	.scl	2;	.type	32;	.endef
	.seh_proc	_ZNSt6vectorINSt7__cxx1112basic_stringIcSt11char_traitsIcESaIcEEESaIS5_EE9push_backEOS5_
_ZNSt6vectorINSt7__cxx1112basic_stringIcSt11char_traitsIcESaIcEEESaIS5_EE9push_backEOS5_:
.LFB2513:
	pushq	%rbp
	.seh_pushreg	%rbp
	movq	%rsp, %rbp
	.seh_setframe	%rbp, 0
	subq	$32, %rsp
	.seh_stackalloc	32
	.seh_endprologue
	movq	%rcx, 16(%rbp)
	movq	%rdx, 24(%rbp)
	movq	24(%rbp), %rax
	movq	%rax, %rcx
	call	_ZSt4moveIRNSt7__cxx1112basic_stringIcSt11char_traitsIcESaIcEEEEONSt16remove_referenceIT_E4typeEOS8_
	movq	%rax, %rdx
	movq	16(%rbp), %rax
	movq	%rax, %rcx
	call	_ZNSt6vectorINSt7__cxx1112basic_stringIcSt11char_traitsIcESaIcEEESaIS5_EE12emplace_backIJS5_EEERS5_DpOT_
	nop
	addq	$32, %rsp
	popq	%rbp
	ret
	.seh_endproc
	.section	.text$_ZNSt6vectorINSt7__cxx1112basic_stringIcSt11char_traitsIcESaIcEEESaIS5_EEC1ERKS7_,"x"
	.linkonce discard
	.align 2
	.globl	_ZNSt6vectorINSt7__cxx1112basic_stringIcSt11char_traitsIcESaIcEEESaIS5_EEC1ERKS7_
	.def	_ZNSt6vectorINSt7__cxx1112basic_stringIcSt11char_traitsIcESaIcEEESaIS5_EEC1ERKS7_;	.scl	2;	.type	32;	.endef
	.seh_proc	_ZNSt6vectorINSt7__cxx1112basic_stringIcSt11char_traitsIcESaIcEEESaIS5_EEC1ERKS7_
_ZNSt6vectorINSt7__cxx1112basic_stringIcSt11char_traitsIcESaIcEEESaIS5_EEC1ERKS7_:
.LFB2516:
	pushq	%rbp
	.seh_pushreg	%rbp
	pushq	%rdi
	.seh_pushreg	%rdi
	pushq	%rsi
	.seh_pushreg	%rsi
	pushq	%rbx
	.seh_pushreg	%rbx
	subq	$56, %rsp
	.seh_stackalloc	56
	leaq	48(%rsp), %rbp
	.seh_setframe	%rbp, 48
	.seh_endprologue
	movq	%rcx, 48(%rbp)
	movq	%rdx, 56(%rbp)
	movq	48(%rbp), %rbx
	movq	56(%rbp), %rax
	movq	%rax, %rcx
	call	_ZNKSt12_Vector_baseINSt7__cxx1112basic_stringIcSt11char_traitsIcESaIcEEESaIS5_EE19_M_get_Tp_allocatorEv
	movq	%rax, %rdx
	leaq	-1(%rbp), %rax
	movq	%rax, %rcx
.LEHB11:
	call	_ZN9__gnu_cxx14__alloc_traitsISaINSt7__cxx1112basic_stringIcSt11char_traitsIcESaIcEEEES6_E17_S_select_on_copyERKS7_
.LEHE11:
	movq	56(%rbp), %rax
	movq	%rax, %rcx
	call	_ZNKSt6vectorINSt7__cxx1112basic_stringIcSt11char_traitsIcESaIcEEESaIS5_EE4sizeEv
	leaq	-1(%rbp), %rdx
	movq	%rdx, %r8
	movq	%rax, %rdx
	movq	%rbx, %rcx
.LEHB12:
	call	_ZNSt12_Vector_baseINSt7__cxx1112basic_stringIcSt11char_traitsIcESaIcEEESaIS5_EEC2EyRKS6_
.LEHE12:
	leaq	-1(%rbp), %rax
	movq	%rax, %rcx
	call	_ZNSaINSt7__cxx1112basic_stringIcSt11char_traitsIcESaIcEEEED1Ev
	movq	48(%rbp), %rax
	movq	%rax, %rcx
	call	_ZNSt12_Vector_baseINSt7__cxx1112basic_stringIcSt11char_traitsIcESaIcEEESaIS5_EE19_M_get_Tp_allocatorEv
	movq	%rax, %rsi
	movq	48(%rbp), %rax
	movq	(%rax), %rdi
	movq	56(%rbp), %rax
	movq	%rax, %rcx
	call	_ZNKSt6vectorINSt7__cxx1112basic_stringIcSt11char_traitsIcESaIcEEESaIS5_EE3endEv
	movq	%rax, %rbx
	movq	56(%rbp), %rax
	movq	%rax, %rcx
	call	_ZNKSt6vectorINSt7__cxx1112basic_stringIcSt11char_traitsIcESaIcEEESaIS5_EE5beginEv
	movq	%rsi, %r9
	movq	%rdi, %r8
	movq	%rbx, %rdx
	movq	%rax, %rcx
.LEHB13:
	call	_ZSt22__uninitialized_copy_aIN9__gnu_cxx17__normal_iteratorIPKNSt7__cxx1112basic_stringIcSt11char_traitsIcESaIcEEESt6vectorIS7_SaIS7_EEEEPS7_S7_ET0_T_SG_SF_RSaIT1_E
.LEHE13:
	movq	48(%rbp), %rdx
	movq	%rax, 8(%rdx)
	jmp	.L55
.L53:
	movq	%rax, %rbx
	leaq	-1(%rbp), %rax
	movq	%rax, %rcx
	call	_ZNSaINSt7__cxx1112basic_stringIcSt11char_traitsIcESaIcEEEED1Ev
	movq	%rbx, %rax
	movq	%rax, %rcx
.LEHB14:
	call	_Unwind_Resume
.L54:
	movq	%rax, %rbx
	movq	48(%rbp), %rax
	movq	%rax, %rcx
	call	_ZNSt12_Vector_baseINSt7__cxx1112basic_stringIcSt11char_traitsIcESaIcEEESaIS5_EED2Ev
	movq	%rbx, %rax
	movq	%rax, %rcx
	call	_Unwind_Resume
	nop
.LEHE14:
.L55:
	addq	$56, %rsp
	popq	%rbx
	popq	%rsi
	popq	%rdi
	popq	%rbp
	ret
	.seh_handler	__gxx_personality_seh0, @unwind, @except
	.seh_handlerdata
.LLSDA2516:
	.byte	0xff
	.byte	0xff
	.byte	0x1
	.uleb128 .LLSDACSE2516-.LLSDACSB2516
.LLSDACSB2516:
	.uleb128 .LEHB11-.LFB2516
	.uleb128 .LEHE11-.LEHB11
	.uleb128 0
	.uleb128 0
	.uleb128 .LEHB12-.LFB2516
	.uleb128 .LEHE12-.LEHB12
	.uleb128 .L53-.LFB2516
	.uleb128 0
	.uleb128 .LEHB13-.LFB2516
	.uleb128 .LEHE13-.LEHB13
	.uleb128 .L54-.LFB2516
	.uleb128 0
	.uleb128 .LEHB14-.LFB2516
	.uleb128 .LEHE14-.LEHB14
	.uleb128 0
	.uleb128 0
.LLSDACSE2516:
	.section	.text$_ZNSt6vectorINSt7__cxx1112basic_stringIcSt11char_traitsIcESaIcEEESaIS5_EEC1ERKS7_,"x"
	.linkonce discard
	.seh_endproc
	.section	.text$_ZN9__gnu_cxx11char_traitsIcE2eqERKcS3_,"x"
	.linkonce discard
	.globl	_ZN9__gnu_cxx11char_traitsIcE2eqERKcS3_
	.def	_ZN9__gnu_cxx11char_traitsIcE2eqERKcS3_;	.scl	2;	.type	32;	.endef
	.seh_proc	_ZN9__gnu_cxx11char_traitsIcE2eqERKcS3_
_ZN9__gnu_cxx11char_traitsIcE2eqERKcS3_:
.LFB2517:
	pushq	%rbp
	.seh_pushreg	%rbp
	movq	%rsp, %rbp
	.seh_setframe	%rbp, 0
	.seh_endprologue
	movq	%rcx, 16(%rbp)
	movq	%rdx, 24(%rbp)
	movq	16(%rbp), %rax
	movzbl	(%rax), %edx
	movq	24(%rbp), %rax
	movzbl	(%rax), %eax
	cmpb	%al, %dl
	sete	%al
	popq	%rbp
	ret
	.seh_endproc
	.section	.text$_ZZNSt7__cxx1112basic_stringIcSt11char_traitsIcESaIcEE12_M_constructIPKcEEvT_S8_St20forward_iterator_tagEN6_GuardC1EPS4_,"x"
	.linkonce discard
	.align 2
	.globl	_ZZNSt7__cxx1112basic_stringIcSt11char_traitsIcESaIcEE12_M_constructIPKcEEvT_S8_St20forward_iterator_tagEN6_GuardC1EPS4_
	.def	_ZZNSt7__cxx1112basic_stringIcSt11char_traitsIcESaIcEE12_M_constructIPKcEEvT_S8_St20forward_iterator_tagEN6_GuardC1EPS4_;	.scl	2;	.type	32;	.endef
	.seh_proc	_ZZNSt7__cxx1112basic_stringIcSt11char_traitsIcESaIcEE12_M_constructIPKcEEvT_S8_St20forward_iterator_tagEN6_GuardC1EPS4_
_ZZNSt7__cxx1112basic_stringIcSt11char_traitsIcESaIcEE12_M_constructIPKcEEvT_S8_St20forward_iterator_tagEN6_GuardC1EPS4_:
.LFB2555:
	pushq	%rbp
	.seh_pushreg	%rbp
	movq	%rsp, %rbp
	.seh_setframe	%rbp, 0
	.seh_endprologue
	movq	%rcx, 16(%rbp)
	movq	%rdx, 24(%rbp)
	movq	16(%rbp), %rax
	movq	24(%rbp), %rdx
	movq	%rdx, (%rax)
	nop
	popq	%rbp
	ret
	.seh_endproc
	.section	.text$_ZZNSt7__cxx1112basic_stringIcSt11char_traitsIcESaIcEE12_M_constructIPKcEEvT_S8_St20forward_iterator_tagEN6_GuardD1Ev,"x"
	.linkonce discard
	.align 2
	.globl	_ZZNSt7__cxx1112basic_stringIcSt11char_traitsIcESaIcEE12_M_constructIPKcEEvT_S8_St20forward_iterator_tagEN6_GuardD1Ev
	.def	_ZZNSt7__cxx1112basic_stringIcSt11char_traitsIcESaIcEE12_M_constructIPKcEEvT_S8_St20forward_iterator_tagEN6_GuardD1Ev;	.scl	2;	.type	32;	.endef
	.seh_proc	_ZZNSt7__cxx1112basic_stringIcSt11char_traitsIcESaIcEE12_M_constructIPKcEEvT_S8_St20forward_iterator_tagEN6_GuardD1Ev
_ZZNSt7__cxx1112basic_stringIcSt11char_traitsIcESaIcEE12_M_constructIPKcEEvT_S8_St20forward_iterator_tagEN6_GuardD1Ev:
.LFB2558:
	pushq	%rbp
	.seh_pushreg	%rbp
	movq	%rsp, %rbp
	.seh_setframe	%rbp, 0
	subq	$32, %rsp
	.seh_stackalloc	32
	.seh_endprologue
	movq	%rcx, 16(%rbp)
	movq	16(%rbp), %rax
	movq	(%rax), %rax
	testq	%rax, %rax
	je	.L61
	movq	16(%rbp), %rax
	movq	(%rax), %rax
	movq	%rax, %rcx
	call	_ZNSt7__cxx1112basic_stringIcSt11char_traitsIcESaIcEE10_M_disposeEv
.L61:
	nop
	addq	$32, %rsp
	popq	%rbp
	ret
	.seh_handler	__gxx_personality_seh0, @unwind, @except
	.seh_handlerdata
.LLSDA2558:
	.byte	0xff
	.byte	0xff
	.byte	0x1
	.uleb128 .LLSDACSE2558-.LLSDACSB2558
.LLSDACSB2558:
.LLSDACSE2558:
	.section	.text$_ZZNSt7__cxx1112basic_stringIcSt11char_traitsIcESaIcEE12_M_constructIPKcEEvT_S8_St20forward_iterator_tagEN6_GuardD1Ev,"x"
	.linkonce discard
	.seh_endproc
	.section	.text$_ZNSt7__cxx1112basic_stringIcSt11char_traitsIcESaIcEE12_M_constructIPKcEEvT_S8_St20forward_iterator_tag,"x"
	.linkonce discard
	.align 2
	.globl	_ZNSt7__cxx1112basic_stringIcSt11char_traitsIcESaIcEE12_M_constructIPKcEEvT_S8_St20forward_iterator_tag
	.def	_ZNSt7__cxx1112basic_stringIcSt11char_traitsIcESaIcEE12_M_constructIPKcEEvT_S8_St20forward_iterator_tag;	.scl	2;	.type	32;	.endef
	.seh_proc	_ZNSt7__cxx1112basic_stringIcSt11char_traitsIcESaIcEE12_M_constructIPKcEEvT_S8_St20forward_iterator_tag
_ZNSt7__cxx1112basic_stringIcSt11char_traitsIcESaIcEE12_M_constructIPKcEEvT_S8_St20forward_iterator_tag:
.LFB2552:
	pushq	%rbp
	.seh_pushreg	%rbp
	movq	%rsp, %rbp
	.seh_setframe	%rbp, 0
	subq	$64, %rsp
	.seh_stackalloc	64
	.seh_endprologue
	movq	%rcx, 16(%rbp)
	movq	%rdx, 24(%rbp)
	movq	%r8, 32(%rbp)
	movq	32(%rbp), %rdx
	movq	24(%rbp), %rax
	movq	%rax, %rcx
	call	_ZSt8distanceIPKcENSt15iterator_traitsIT_E15difference_typeES3_S3_
	movq	%rax, -16(%rbp)
	movq	-16(%rbp), %rax
	cmpq	$15, %rax
	jbe	.L63
	leaq	-16(%rbp), %rdx
	movq	16(%rbp), %rax
	movl	$0, %r8d
	movq	%rax, %rcx
	call	_ZNSt7__cxx1112basic_stringIcSt11char_traitsIcESaIcEE9_M_createERyy
	movq	%rax, %rdx
	movq	16(%rbp), %rax
	movq	%rax, %rcx
	call	_ZNSt7__cxx1112basic_stringIcSt11char_traitsIcESaIcEE7_M_dataEPc
	movq	-16(%rbp), %rdx
	movq	16(%rbp), %rax
	movq	%rax, %rcx
	call	_ZNSt7__cxx1112basic_stringIcSt11char_traitsIcESaIcEE11_M_capacityEy
	jmp	.L64
.L63:
	movq	16(%rbp), %rax
	movq	%rax, -8(%rbp)
	movq	-8(%rbp), %rax
	movq	%rax, %rcx
	call	_ZNSt7__cxx1112basic_stringIcSt11char_traitsIcESaIcEE13_M_local_dataEv
	nop
.L64:
	movq	16(%rbp), %rdx
	leaq	-24(%rbp), %rax
	movq	%rax, %rcx
	call	_ZZNSt7__cxx1112basic_stringIcSt11char_traitsIcESaIcEE12_M_constructIPKcEEvT_S8_St20forward_iterator_tagEN6_GuardC1EPS4_
	movq	16(%rbp), %rax
	movq	%rax, %rcx
	call	_ZNKSt7__cxx1112basic_stringIcSt11char_traitsIcESaIcEE7_M_dataEv
	movq	%rax, %rcx
	movq	32(%rbp), %rdx
	movq	24(%rbp), %rax
	movq	%rdx, %r8
	movq	%rax, %rdx
	call	_ZNSt7__cxx1112basic_stringIcSt11char_traitsIcESaIcEE13_S_copy_charsEPcPKcS7_
	movq	$0, -24(%rbp)
	movq	-16(%rbp), %rdx
	movq	16(%rbp), %rax
	movq	%rax, %rcx
	call	_ZNSt7__cxx1112basic_stringIcSt11char_traitsIcESaIcEE13_M_set_lengthEy
	leaq	-24(%rbp), %rax
	movq	%rax, %rcx
	call	_ZZNSt7__cxx1112basic_stringIcSt11char_traitsIcESaIcEE12_M_constructIPKcEEvT_S8_St20forward_iterator_tagEN6_GuardD1Ev
	nop
	addq	$64, %rsp
	popq	%rbp
	ret
	.seh_endproc
	.section	.text$_ZSt4moveIRNSt7__cxx1112basic_stringIcSt11char_traitsIcESaIcEEEEONSt16remove_referenceIT_E4typeEOS8_,"x"
	.linkonce discard
	.globl	_ZSt4moveIRNSt7__cxx1112basic_stringIcSt11char_traitsIcESaIcEEEEONSt16remove_referenceIT_E4typeEOS8_
	.def	_ZSt4moveIRNSt7__cxx1112basic_stringIcSt11char_traitsIcESaIcEEEEONSt16remove_referenceIT_E4typeEOS8_;	.scl	2;	.type	32;	.endef
	.seh_proc	_ZSt4moveIRNSt7__cxx1112basic_stringIcSt11char_traitsIcESaIcEEEEONSt16remove_referenceIT_E4typeEOS8_
_ZSt4moveIRNSt7__cxx1112basic_stringIcSt11char_traitsIcESaIcEEEEONSt16remove_referenceIT_E4typeEOS8_:
.LFB2618:
	pushq	%rbp
	.seh_pushreg	%rbp
	movq	%rsp, %rbp
	.seh_setframe	%rbp, 0
	.seh_endprologue
	movq	%rcx, 16(%rbp)
	movq	16(%rbp), %rax
	popq	%rbp
	ret
	.seh_endproc
	.section	.text$_ZNSaINSt7__cxx1112basic_stringIcSt11char_traitsIcESaIcEEEEC2Ev,"x"
	.linkonce discard
	.align 2
	.globl	_ZNSaINSt7__cxx1112basic_stringIcSt11char_traitsIcESaIcEEEEC2Ev
	.def	_ZNSaINSt7__cxx1112basic_stringIcSt11char_traitsIcESaIcEEEEC2Ev;	.scl	2;	.type	32;	.endef
	.seh_proc	_ZNSaINSt7__cxx1112basic_stringIcSt11char_traitsIcESaIcEEEEC2Ev
_ZNSaINSt7__cxx1112basic_stringIcSt11char_traitsIcESaIcEEEEC2Ev:
.LFB2622:
	pushq	%rbp
	.seh_pushreg	%rbp
	movq	%rsp, %rbp
	.seh_setframe	%rbp, 0
	subq	$32, %rsp
	.seh_stackalloc	32
	.seh_endprologue
	movq	%rcx, 16(%rbp)
	movq	16(%rbp), %rax
	movq	%rax, %rcx
	call	_ZNSt15__new_allocatorINSt7__cxx1112basic_stringIcSt11char_traitsIcESaIcEEEEC2Ev
	nop
	addq	$32, %rsp
	popq	%rbp
	ret
	.seh_endproc
	.section	.text$_ZNSt12_Vector_baseINSt7__cxx1112basic_stringIcSt11char_traitsIcESaIcEEESaIS5_EE17_Vector_impl_dataC2Ev,"x"
	.linkonce discard
	.align 2
	.globl	_ZNSt12_Vector_baseINSt7__cxx1112basic_stringIcSt11char_traitsIcESaIcEEESaIS5_EE17_Vector_impl_dataC2Ev
	.def	_ZNSt12_Vector_baseINSt7__cxx1112basic_stringIcSt11char_traitsIcESaIcEEESaIS5_EE17_Vector_impl_dataC2Ev;	.scl	2;	.type	32;	.endef
	.seh_proc	_ZNSt12_Vector_baseINSt7__cxx1112basic_stringIcSt11char_traitsIcESaIcEEESaIS5_EE17_Vector_impl_dataC2Ev
_ZNSt12_Vector_baseINSt7__cxx1112basic_stringIcSt11char_traitsIcESaIcEEESaIS5_EE17_Vector_impl_dataC2Ev:
.LFB2625:
	pushq	%rbp
	.seh_pushreg	%rbp
	movq	%rsp, %rbp
	.seh_setframe	%rbp, 0
	.seh_endprologue
	movq	%rcx, 16(%rbp)
	movq	16(%rbp), %rax
	movq	$0, (%rax)
	movq	16(%rbp), %rax
	movq	$0, 8(%rax)
	movq	16(%rbp), %rax
	movq	$0, 16(%rax)
	nop
	popq	%rbp
	ret
	.seh_endproc
	.section	.text$_ZNSt15__new_allocatorINSt7__cxx1112basic_stringIcSt11char_traitsIcESaIcEEEED2Ev,"x"
	.linkonce discard
	.align 2
	.globl	_ZNSt15__new_allocatorINSt7__cxx1112basic_stringIcSt11char_traitsIcESaIcEEEED2Ev
	.def	_ZNSt15__new_allocatorINSt7__cxx1112basic_stringIcSt11char_traitsIcESaIcEEEED2Ev;	.scl	2;	.type	32;	.endef
	.seh_proc	_ZNSt15__new_allocatorINSt7__cxx1112basic_stringIcSt11char_traitsIcESaIcEEEED2Ev
_ZNSt15__new_allocatorINSt7__cxx1112basic_stringIcSt11char_traitsIcESaIcEEEED2Ev:
.LFB2628:
	pushq	%rbp
	.seh_pushreg	%rbp
	movq	%rsp, %rbp
	.seh_setframe	%rbp, 0
	.seh_endprologue
	movq	%rcx, 16(%rbp)
	nop
	popq	%rbp
	ret
	.seh_endproc
	.section	.text$_ZNSt12_Vector_baseINSt7__cxx1112basic_stringIcSt11char_traitsIcESaIcEEESaIS5_EE13_M_deallocateEPS5_y,"x"
	.linkonce discard
	.align 2
	.globl	_ZNSt12_Vector_baseINSt7__cxx1112basic_stringIcSt11char_traitsIcESaIcEEESaIS5_EE13_M_deallocateEPS5_y
	.def	_ZNSt12_Vector_baseINSt7__cxx1112basic_stringIcSt11char_traitsIcESaIcEEESaIS5_EE13_M_deallocateEPS5_y;	.scl	2;	.type	32;	.endef
	.seh_proc	_ZNSt12_Vector_baseINSt7__cxx1112basic_stringIcSt11char_traitsIcESaIcEEESaIS5_EE13_M_deallocateEPS5_y
_ZNSt12_Vector_baseINSt7__cxx1112basic_stringIcSt11char_traitsIcESaIcEEESaIS5_EE13_M_deallocateEPS5_y:
.LFB2630:
	pushq	%rbp
	.seh_pushreg	%rbp
	movq	%rsp, %rbp
	.seh_setframe	%rbp, 0
	subq	$32, %rsp
	.seh_stackalloc	32
	.seh_endprologue
	movq	%rcx, 16(%rbp)
	movq	%rdx, 24(%rbp)
	movq	%r8, 32(%rbp)
	cmpq	$0, 24(%rbp)
	je	.L73
	movq	16(%rbp), %rax
	movq	32(%rbp), %rcx
	movq	24(%rbp), %rdx
	movq	%rcx, %r8
	movq	%rax, %rcx
	call	_ZNSt16allocator_traitsISaINSt7__cxx1112basic_stringIcSt11char_traitsIcESaIcEEEEE10deallocateERS6_PS5_y
.L73:
	nop
	addq	$32, %rsp
	popq	%rbp
	ret
	.seh_endproc
	.section	.text$_ZNSt12_Vector_baseINSt7__cxx1112basic_stringIcSt11char_traitsIcESaIcEEESaIS5_EE19_M_get_Tp_allocatorEv,"x"
	.linkonce discard
	.align 2
	.globl	_ZNSt12_Vector_baseINSt7__cxx1112basic_stringIcSt11char_traitsIcESaIcEEESaIS5_EE19_M_get_Tp_allocatorEv
	.def	_ZNSt12_Vector_baseINSt7__cxx1112basic_stringIcSt11char_traitsIcESaIcEEESaIS5_EE19_M_get_Tp_allocatorEv;	.scl	2;	.type	32;	.endef
	.seh_proc	_ZNSt12_Vector_baseINSt7__cxx1112basic_stringIcSt11char_traitsIcESaIcEEESaIS5_EE19_M_get_Tp_allocatorEv
_ZNSt12_Vector_baseINSt7__cxx1112basic_stringIcSt11char_traitsIcESaIcEEESaIS5_EE19_M_get_Tp_allocatorEv:
.LFB2631:
	pushq	%rbp
	.seh_pushreg	%rbp
	movq	%rsp, %rbp
	.seh_setframe	%rbp, 0
	.seh_endprologue
	movq	%rcx, 16(%rbp)
	movq	16(%rbp), %rax
	popq	%rbp
	ret
	.seh_endproc
	.section	.text$_ZSt8_DestroyIPNSt7__cxx1112basic_stringIcSt11char_traitsIcESaIcEEES5_EvT_S7_RSaIT0_E,"x"
	.linkonce discard
	.globl	_ZSt8_DestroyIPNSt7__cxx1112basic_stringIcSt11char_traitsIcESaIcEEES5_EvT_S7_RSaIT0_E
	.def	_ZSt8_DestroyIPNSt7__cxx1112basic_stringIcSt11char_traitsIcESaIcEEES5_EvT_S7_RSaIT0_E;	.scl	2;	.type	32;	.endef
	.seh_proc	_ZSt8_DestroyIPNSt7__cxx1112basic_stringIcSt11char_traitsIcESaIcEEES5_EvT_S7_RSaIT0_E
_ZSt8_DestroyIPNSt7__cxx1112basic_stringIcSt11char_traitsIcESaIcEEES5_EvT_S7_RSaIT0_E:
.LFB2632:
	pushq	%rbp
	.seh_pushreg	%rbp
	movq	%rsp, %rbp
	.seh_setframe	%rbp, 0
	subq	$32, %rsp
	.seh_stackalloc	32
	.seh_endprologue
	movq	%rcx, 16(%rbp)
	movq	%rdx, 24(%rbp)
	movq	%r8, 32(%rbp)
	movq	24(%rbp), %rdx
	movq	16(%rbp), %rax
	movq	%rax, %rcx
	call	_ZSt8_DestroyIPNSt7__cxx1112basic_stringIcSt11char_traitsIcESaIcEEEEvT_S7_
	nop
	addq	$32, %rsp
	popq	%rbp
	ret
	.seh_endproc
	.section	.text$_ZNSt6vectorINSt7__cxx1112basic_stringIcSt11char_traitsIcESaIcEEESaIS5_EE12emplace_backIJS5_EEERS5_DpOT_,"x"
	.linkonce discard
	.align 2
	.globl	_ZNSt6vectorINSt7__cxx1112basic_stringIcSt11char_traitsIcESaIcEEESaIS5_EE12emplace_backIJS5_EEERS5_DpOT_
	.def	_ZNSt6vectorINSt7__cxx1112basic_stringIcSt11char_traitsIcESaIcEEESaIS5_EE12emplace_backIJS5_EEERS5_DpOT_;	.scl	2;	.type	32;	.endef
	.seh_proc	_ZNSt6vectorINSt7__cxx1112basic_stringIcSt11char_traitsIcESaIcEEESaIS5_EE12emplace_backIJS5_EEERS5_DpOT_
_ZNSt6vectorINSt7__cxx1112basic_stringIcSt11char_traitsIcESaIcEEESaIS5_EE12emplace_backIJS5_EEERS5_DpOT_:
.LFB2633:
	pushq	%rbp
	.seh_pushreg	%rbp
	pushq	%rbx
	.seh_pushreg	%rbx
	subq	$40, %rsp
	.seh_stackalloc	40
	leaq	32(%rsp), %rbp
	.seh_setframe	%rbp, 32
	.seh_endprologue
	movq	%rcx, 32(%rbp)
	movq	%rdx, 40(%rbp)
	movq	32(%rbp), %rax
	movq	8(%rax), %rdx
	movq	32(%rbp), %rax
	movq	16(%rax), %rax
	cmpq	%rax, %rdx
	je	.L78
	movq	40(%rbp), %rax
	movq	%rax, %rcx
	call	_ZSt7forwardINSt7__cxx1112basic_stringIcSt11char_traitsIcESaIcEEEEOT_RNSt16remove_referenceIS6_E4typeE
	movq	%rax, %rcx
	movq	32(%rbp), %rax
	movq	8(%rax), %rdx
	movq	32(%rbp), %rax
	movq	%rcx, %r8
	movq	%rax, %rcx
	call	_ZNSt16allocator_traitsISaINSt7__cxx1112basic_stringIcSt11char_traitsIcESaIcEEEEE9constructIS5_JS5_EEEvRS6_PT_DpOT0_
	movq	32(%rbp), %rax
	movq	8(%rax), %rax
	leaq	32(%rax), %rdx
	movq	32(%rbp), %rax
	movq	%rdx, 8(%rax)
	jmp	.L79
.L78:
	movq	40(%rbp), %rax
	movq	%rax, %rcx
	call	_ZSt7forwardINSt7__cxx1112basic_stringIcSt11char_traitsIcESaIcEEEEOT_RNSt16remove_referenceIS6_E4typeE
	movq	%rax, %rbx
	movq	32(%rbp), %rax
	movq	%rax, %rcx
	call	_ZNSt6vectorINSt7__cxx1112basic_stringIcSt11char_traitsIcESaIcEEESaIS5_EE3endEv
	movq	%rax, %rdx
	movq	32(%rbp), %rax
	movq	%rbx, %r8
	movq	%rax, %rcx
	call	_ZNSt6vectorINSt7__cxx1112basic_stringIcSt11char_traitsIcESaIcEEESaIS5_EE17_M_realloc_insertIJS5_EEEvN9__gnu_cxx17__normal_iteratorIPS5_S7_EEDpOT_
.L79:
	movq	32(%rbp), %rax
	movq	%rax, %rcx
	call	_ZNSt6vectorINSt7__cxx1112basic_stringIcSt11char_traitsIcESaIcEEESaIS5_EE4backEv
	addq	$40, %rsp
	popq	%rbx
	popq	%rbp
	ret
	.seh_endproc
	.section	.text$_ZNKSt6vectorINSt7__cxx1112basic_stringIcSt11char_traitsIcESaIcEEESaIS5_EE4sizeEv,"x"
	.linkonce discard
	.align 2
	.globl	_ZNKSt6vectorINSt7__cxx1112basic_stringIcSt11char_traitsIcESaIcEEESaIS5_EE4sizeEv
	.def	_ZNKSt6vectorINSt7__cxx1112basic_stringIcSt11char_traitsIcESaIcEEESaIS5_EE4sizeEv;	.scl	2;	.type	32;	.endef
	.seh_proc	_ZNKSt6vectorINSt7__cxx1112basic_stringIcSt11char_traitsIcESaIcEEESaIS5_EE4sizeEv
_ZNKSt6vectorINSt7__cxx1112basic_stringIcSt11char_traitsIcESaIcEEESaIS5_EE4sizeEv:
.LFB2635:
	pushq	%rbp
	.seh_pushreg	%rbp
	movq	%rsp, %rbp
	.seh_setframe	%rbp, 0
	.seh_endprologue
	movq	%rcx, 16(%rbp)
	movq	16(%rbp), %rax
	movq	8(%rax), %rdx
	movq	16(%rbp), %rax
	movq	(%rax), %rax
	subq	%rax, %rdx
	movq	%rdx, %rax
	sarq	$5, %rax
	popq	%rbp
	ret
	.seh_endproc
	.section	.text$_ZNKSt12_Vector_baseINSt7__cxx1112basic_stringIcSt11char_traitsIcESaIcEEESaIS5_EE19_M_get_Tp_allocatorEv,"x"
	.linkonce discard
	.align 2
	.globl	_ZNKSt12_Vector_baseINSt7__cxx1112basic_stringIcSt11char_traitsIcESaIcEEESaIS5_EE19_M_get_Tp_allocatorEv
	.def	_ZNKSt12_Vector_baseINSt7__cxx1112basic_stringIcSt11char_traitsIcESaIcEEESaIS5_EE19_M_get_Tp_allocatorEv;	.scl	2;	.type	32;	.endef
	.seh_proc	_ZNKSt12_Vector_baseINSt7__cxx1112basic_stringIcSt11char_traitsIcESaIcEEESaIS5_EE19_M_get_Tp_allocatorEv
_ZNKSt12_Vector_baseINSt7__cxx1112basic_stringIcSt11char_traitsIcESaIcEEESaIS5_EE19_M_get_Tp_allocatorEv:
.LFB2636:
	pushq	%rbp
	.seh_pushreg	%rbp
	movq	%rsp, %rbp
	.seh_setframe	%rbp, 0
	.seh_endprologue
	movq	%rcx, 16(%rbp)
	movq	16(%rbp), %rax
	popq	%rbp
	ret
	.seh_endproc
	.section	.text$_ZN9__gnu_cxx14__alloc_traitsISaINSt7__cxx1112basic_stringIcSt11char_traitsIcESaIcEEEES6_E17_S_select_on_copyERKS7_,"x"
	.linkonce discard
	.globl	_ZN9__gnu_cxx14__alloc_traitsISaINSt7__cxx1112basic_stringIcSt11char_traitsIcESaIcEEEES6_E17_S_select_on_copyERKS7_
	.def	_ZN9__gnu_cxx14__alloc_traitsISaINSt7__cxx1112basic_stringIcSt11char_traitsIcESaIcEEEES6_E17_S_select_on_copyERKS7_;	.scl	2;	.type	32;	.endef
	.seh_proc	_ZN9__gnu_cxx14__alloc_traitsISaINSt7__cxx1112basic_stringIcSt11char_traitsIcESaIcEEEES6_E17_S_select_on_copyERKS7_
_ZN9__gnu_cxx14__alloc_traitsISaINSt7__cxx1112basic_stringIcSt11char_traitsIcESaIcEEEES6_E17_S_select_on_copyERKS7_:
.LFB2637:
	pushq	%rbp
	.seh_pushreg	%rbp
	movq	%rsp, %rbp
	.seh_setframe	%rbp, 0
	subq	$32, %rsp
	.seh_stackalloc	32
	.seh_endprologue
	movq	%rcx, 16(%rbp)
	movq	%rdx, 24(%rbp)
	movq	16(%rbp), %rax
	movq	24(%rbp), %rdx
	movq	%rax, %rcx
	call	_ZNSt16allocator_traitsISaINSt7__cxx1112basic_stringIcSt11char_traitsIcESaIcEEEEE37select_on_container_copy_constructionERKS6_
	movq	16(%rbp), %rax
	addq	$32, %rsp
	popq	%rbp
	ret
	.seh_endproc
	.section	.text$_ZNSt12_Vector_baseINSt7__cxx1112basic_stringIcSt11char_traitsIcESaIcEEESaIS5_EEC2EyRKS6_,"x"
	.linkonce discard
	.align 2
	.globl	_ZNSt12_Vector_baseINSt7__cxx1112basic_stringIcSt11char_traitsIcESaIcEEESaIS5_EEC2EyRKS6_
	.def	_ZNSt12_Vector_baseINSt7__cxx1112basic_stringIcSt11char_traitsIcESaIcEEESaIS5_EEC2EyRKS6_;	.scl	2;	.type	32;	.endef
	.seh_proc	_ZNSt12_Vector_baseINSt7__cxx1112basic_stringIcSt11char_traitsIcESaIcEEESaIS5_EEC2EyRKS6_
_ZNSt12_Vector_baseINSt7__cxx1112basic_stringIcSt11char_traitsIcESaIcEEESaIS5_EEC2EyRKS6_:
.LFB2639:
	pushq	%rbp
	.seh_pushreg	%rbp
	pushq	%rbx
	.seh_pushreg	%rbx
	subq	$40, %rsp
	.seh_stackalloc	40
	leaq	32(%rsp), %rbp
	.seh_setframe	%rbp, 32
	.seh_endprologue
	movq	%rcx, 32(%rbp)
	movq	%rdx, 40(%rbp)
	movq	%r8, 48(%rbp)
	movq	32(%rbp), %rax
	movq	48(%rbp), %rdx
	movq	%rax, %rcx
	call	_ZNSt12_Vector_baseINSt7__cxx1112basic_stringIcSt11char_traitsIcESaIcEEESaIS5_EE12_Vector_implC1ERKS6_
	movq	40(%rbp), %rdx
	movq	32(%rbp), %rax
	movq	%rax, %rcx
.LEHB15:
	call	_ZNSt12_Vector_baseINSt7__cxx1112basic_stringIcSt11char_traitsIcESaIcEEESaIS5_EE17_M_create_storageEy
.LEHE15:
	jmp	.L90
.L89:
	movq	%rax, %rbx
	movq	32(%rbp), %rax
	movq	%rax, %rcx
	call	_ZNSt12_Vector_baseINSt7__cxx1112basic_stringIcSt11char_traitsIcESaIcEEESaIS5_EE12_Vector_implD1Ev
	movq	%rbx, %rax
	movq	%rax, %rcx
.LEHB16:
	call	_Unwind_Resume
	nop
.LEHE16:
.L90:
	addq	$40, %rsp
	popq	%rbx
	popq	%rbp
	ret
	.seh_handler	__gxx_personality_seh0, @unwind, @except
	.seh_handlerdata
.LLSDA2639:
	.byte	0xff
	.byte	0xff
	.byte	0x1
	.uleb128 .LLSDACSE2639-.LLSDACSB2639
.LLSDACSB2639:
	.uleb128 .LEHB15-.LFB2639
	.uleb128 .LEHE15-.LEHB15
	.uleb128 .L89-.LFB2639
	.uleb128 0
	.uleb128 .LEHB16-.LFB2639
	.uleb128 .LEHE16-.LEHB16
	.uleb128 0
	.uleb128 0
.LLSDACSE2639:
	.section	.text$_ZNSt12_Vector_baseINSt7__cxx1112basic_stringIcSt11char_traitsIcESaIcEEESaIS5_EEC2EyRKS6_,"x"
	.linkonce discard
	.seh_endproc
	.section	.text$_ZNKSt6vectorINSt7__cxx1112basic_stringIcSt11char_traitsIcESaIcEEESaIS5_EE5beginEv,"x"
	.linkonce discard
	.align 2
	.globl	_ZNKSt6vectorINSt7__cxx1112basic_stringIcSt11char_traitsIcESaIcEEESaIS5_EE5beginEv
	.def	_ZNKSt6vectorINSt7__cxx1112basic_stringIcSt11char_traitsIcESaIcEEESaIS5_EE5beginEv;	.scl	2;	.type	32;	.endef
	.seh_proc	_ZNKSt6vectorINSt7__cxx1112basic_stringIcSt11char_traitsIcESaIcEEESaIS5_EE5beginEv
_ZNKSt6vectorINSt7__cxx1112basic_stringIcSt11char_traitsIcESaIcEEESaIS5_EE5beginEv:
.LFB2641:
	pushq	%rbp
	.seh_pushreg	%rbp
	movq	%rsp, %rbp
	.seh_setframe	%rbp, 0
	subq	$48, %rsp
	.seh_stackalloc	48
	.seh_endprologue
	movq	%rcx, 16(%rbp)
	movq	16(%rbp), %rdx
	leaq	-8(%rbp), %rax
	movq	%rax, %rcx
	call	_ZN9__gnu_cxx17__normal_iteratorIPKNSt7__cxx1112basic_stringIcSt11char_traitsIcESaIcEEESt6vectorIS6_SaIS6_EEEC1ERKS8_
	movq	-8(%rbp), %rax
	addq	$48, %rsp
	popq	%rbp
	ret
	.seh_endproc
	.section	.text$_ZNKSt6vectorINSt7__cxx1112basic_stringIcSt11char_traitsIcESaIcEEESaIS5_EE3endEv,"x"
	.linkonce discard
	.align 2
	.globl	_ZNKSt6vectorINSt7__cxx1112basic_stringIcSt11char_traitsIcESaIcEEESaIS5_EE3endEv
	.def	_ZNKSt6vectorINSt7__cxx1112basic_stringIcSt11char_traitsIcESaIcEEESaIS5_EE3endEv;	.scl	2;	.type	32;	.endef
	.seh_proc	_ZNKSt6vectorINSt7__cxx1112basic_stringIcSt11char_traitsIcESaIcEEESaIS5_EE3endEv
_ZNKSt6vectorINSt7__cxx1112basic_stringIcSt11char_traitsIcESaIcEEESaIS5_EE3endEv:
.LFB2642:
	pushq	%rbp
	.seh_pushreg	%rbp
	movq	%rsp, %rbp
	.seh_setframe	%rbp, 0
	subq	$48, %rsp
	.seh_stackalloc	48
	.seh_endprologue
	movq	%rcx, 16(%rbp)
	movq	16(%rbp), %rax
	leaq	8(%rax), %rdx
	leaq	-8(%rbp), %rax
	movq	%rax, %rcx
	call	_ZN9__gnu_cxx17__normal_iteratorIPKNSt7__cxx1112basic_stringIcSt11char_traitsIcESaIcEEESt6vectorIS6_SaIS6_EEEC1ERKS8_
	movq	-8(%rbp), %rax
	addq	$48, %rsp
	popq	%rbp
	ret
	.seh_endproc
	.section	.text$_ZSt22__uninitialized_copy_aIN9__gnu_cxx17__normal_iteratorIPKNSt7__cxx1112basic_stringIcSt11char_traitsIcESaIcEEESt6vectorIS7_SaIS7_EEEEPS7_S7_ET0_T_SG_SF_RSaIT1_E,"x"
	.linkonce discard
	.globl	_ZSt22__uninitialized_copy_aIN9__gnu_cxx17__normal_iteratorIPKNSt7__cxx1112basic_stringIcSt11char_traitsIcESaIcEEESt6vectorIS7_SaIS7_EEEEPS7_S7_ET0_T_SG_SF_RSaIT1_E
	.def	_ZSt22__uninitialized_copy_aIN9__gnu_cxx17__normal_iteratorIPKNSt7__cxx1112basic_stringIcSt11char_traitsIcESaIcEEESt6vectorIS7_SaIS7_EEEEPS7_S7_ET0_T_SG_SF_RSaIT1_E;	.scl	2;	.type	32;	.endef
	.seh_proc	_ZSt22__uninitialized_copy_aIN9__gnu_cxx17__normal_iteratorIPKNSt7__cxx1112basic_stringIcSt11char_traitsIcESaIcEEESt6vectorIS7_SaIS7_EEEEPS7_S7_ET0_T_SG_SF_RSaIT1_E
_ZSt22__uninitialized_copy_aIN9__gnu_cxx17__normal_iteratorIPKNSt7__cxx1112basic_stringIcSt11char_traitsIcESaIcEEESt6vectorIS7_SaIS7_EEEEPS7_S7_ET0_T_SG_SF_RSaIT1_E:
.LFB2643:
	pushq	%rbp
	.seh_pushreg	%rbp
	movq	%rsp, %rbp
	.seh_setframe	%rbp, 0
	subq	$32, %rsp
	.seh_stackalloc	32
	.seh_endprologue
	movq	%rcx, 16(%rbp)
	movq	%rdx, 24(%rbp)
	movq	%r8, 32(%rbp)
	movq	%r9, 40(%rbp)
	movq	32(%rbp), %rcx
	movq	24(%rbp), %rdx
	movq	16(%rbp), %rax
	movq	%rcx, %r8
	movq	%rax, %rcx
	call	_ZSt18uninitialized_copyIN9__gnu_cxx17__normal_iteratorIPKNSt7__cxx1112basic_stringIcSt11char_traitsIcESaIcEEESt6vectorIS7_SaIS7_EEEEPS7_ET0_T_SG_SF_
	addq	$32, %rsp
	popq	%rbp
	ret
	.seh_endproc
	.section	.text$_ZSt8distanceIPKcENSt15iterator_traitsIT_E15difference_typeES3_S3_,"x"
	.linkonce discard
	.globl	_ZSt8distanceIPKcENSt15iterator_traitsIT_E15difference_typeES3_S3_
	.def	_ZSt8distanceIPKcENSt15iterator_traitsIT_E15difference_typeES3_S3_;	.scl	2;	.type	32;	.endef
	.seh_proc	_ZSt8distanceIPKcENSt15iterator_traitsIT_E15difference_typeES3_S3_
_ZSt8distanceIPKcENSt15iterator_traitsIT_E15difference_typeES3_S3_:
.LFB2668:
	pushq	%rbp
	.seh_pushreg	%rbp
	pushq	%rbx
	.seh_pushreg	%rbx
	subq	$40, %rsp
	.seh_stackalloc	40
	leaq	32(%rsp), %rbp
	.seh_setframe	%rbp, 32
	.seh_endprologue
	movq	%rcx, 32(%rbp)
	movq	%rdx, 40(%rbp)
	leaq	32(%rbp), %rcx
	call	_ZSt19__iterator_categoryIPKcENSt15iterator_traitsIT_E17iterator_categoryERKS3_
	movq	32(%rbp), %rax
	movq	40(%rbp), %rdx
	movl	%ebx, %r8d
	movq	%rax, %rcx
	call	_ZSt10__distanceIPKcENSt15iterator_traitsIT_E15difference_typeES3_S3_St26random_access_iterator_tag
	addq	$40, %rsp
	popq	%rbx
	popq	%rbp
	ret
	.seh_endproc
	.section	.text$_ZNSt15__new_allocatorINSt7__cxx1112basic_stringIcSt11char_traitsIcESaIcEEEEC2Ev,"x"
	.linkonce discard
	.align 2
	.globl	_ZNSt15__new_allocatorINSt7__cxx1112basic_stringIcSt11char_traitsIcESaIcEEEEC2Ev
	.def	_ZNSt15__new_allocatorINSt7__cxx1112basic_stringIcSt11char_traitsIcESaIcEEEEC2Ev;	.scl	2;	.type	32;	.endef
	.seh_proc	_ZNSt15__new_allocatorINSt7__cxx1112basic_stringIcSt11char_traitsIcESaIcEEEEC2Ev
_ZNSt15__new_allocatorINSt7__cxx1112basic_stringIcSt11char_traitsIcESaIcEEEEC2Ev:
.LFB2713:
	pushq	%rbp
	.seh_pushreg	%rbp
	movq	%rsp, %rbp
	.seh_setframe	%rbp, 0
	.seh_endprologue
	movq	%rcx, 16(%rbp)
	nop
	popq	%rbp
	ret
	.seh_endproc
	.section	.text$_ZNSt16allocator_traitsISaINSt7__cxx1112basic_stringIcSt11char_traitsIcESaIcEEEEE10deallocateERS6_PS5_y,"x"
	.linkonce discard
	.globl	_ZNSt16allocator_traitsISaINSt7__cxx1112basic_stringIcSt11char_traitsIcESaIcEEEEE10deallocateERS6_PS5_y
	.def	_ZNSt16allocator_traitsISaINSt7__cxx1112basic_stringIcSt11char_traitsIcESaIcEEEEE10deallocateERS6_PS5_y;	.scl	2;	.type	32;	.endef
	.seh_proc	_ZNSt16allocator_traitsISaINSt7__cxx1112basic_stringIcSt11char_traitsIcESaIcEEEEE10deallocateERS6_PS5_y
_ZNSt16allocator_traitsISaINSt7__cxx1112basic_stringIcSt11char_traitsIcESaIcEEEEE10deallocateERS6_PS5_y:
.LFB2715:
	pushq	%rbp
	.seh_pushreg	%rbp
	movq	%rsp, %rbp
	.seh_setframe	%rbp, 0
	subq	$32, %rsp
	.seh_stackalloc	32
	.seh_endprologue
	movq	%rcx, 16(%rbp)
	movq	%rdx, 24(%rbp)
	movq	%r8, 32(%rbp)
	movq	32(%rbp), %rcx
	movq	24(%rbp), %rdx
	movq	16(%rbp), %rax
	movq	%rcx, %r8
	movq	%rax, %rcx
	call	_ZNSt15__new_allocatorINSt7__cxx1112basic_stringIcSt11char_traitsIcESaIcEEEE10deallocateEPS5_y
	nop
	addq	$32, %rsp
	popq	%rbp
	ret
	.seh_endproc
	.section	.text$_ZSt8_DestroyIPNSt7__cxx1112basic_stringIcSt11char_traitsIcESaIcEEEEvT_S7_,"x"
	.linkonce discard
	.globl	_ZSt8_DestroyIPNSt7__cxx1112basic_stringIcSt11char_traitsIcESaIcEEEEvT_S7_
	.def	_ZSt8_DestroyIPNSt7__cxx1112basic_stringIcSt11char_traitsIcESaIcEEEEvT_S7_;	.scl	2;	.type	32;	.endef
	.seh_proc	_ZSt8_DestroyIPNSt7__cxx1112basic_stringIcSt11char_traitsIcESaIcEEEEvT_S7_
_ZSt8_DestroyIPNSt7__cxx1112basic_stringIcSt11char_traitsIcESaIcEEEEvT_S7_:
.LFB2716:
	pushq	%rbp
	.seh_pushreg	%rbp
	movq	%rsp, %rbp
	.seh_setframe	%rbp, 0
	subq	$32, %rsp
	.seh_stackalloc	32
	.seh_endprologue
	movq	%rcx, 16(%rbp)
	movq	%rdx, 24(%rbp)
	movq	24(%rbp), %rdx
	movq	16(%rbp), %rax
	movq	%rax, %rcx
	call	_ZNSt12_Destroy_auxILb0EE9__destroyIPNSt7__cxx1112basic_stringIcSt11char_traitsIcESaIcEEEEEvT_S9_
	nop
	addq	$32, %rsp
	popq	%rbp
	ret
	.seh_endproc
	.section	.text$_ZSt7forwardINSt7__cxx1112basic_stringIcSt11char_traitsIcESaIcEEEEOT_RNSt16remove_referenceIS6_E4typeE,"x"
	.linkonce discard
	.globl	_ZSt7forwardINSt7__cxx1112basic_stringIcSt11char_traitsIcESaIcEEEEOT_RNSt16remove_referenceIS6_E4typeE
	.def	_ZSt7forwardINSt7__cxx1112basic_stringIcSt11char_traitsIcESaIcEEEEOT_RNSt16remove_referenceIS6_E4typeE;	.scl	2;	.type	32;	.endef
	.seh_proc	_ZSt7forwardINSt7__cxx1112basic_stringIcSt11char_traitsIcESaIcEEEEOT_RNSt16remove_referenceIS6_E4typeE
_ZSt7forwardINSt7__cxx1112basic_stringIcSt11char_traitsIcESaIcEEEEOT_RNSt16remove_referenceIS6_E4typeE:
.LFB2717:
	pushq	%rbp
	.seh_pushreg	%rbp
	movq	%rsp, %rbp
	.seh_setframe	%rbp, 0
	.seh_endprologue
	movq	%rcx, 16(%rbp)
	movq	16(%rbp), %rax
	popq	%rbp
	ret
	.seh_endproc
	.section	.text$_ZNSt16allocator_traitsISaINSt7__cxx1112basic_stringIcSt11char_traitsIcESaIcEEEEE9constructIS5_JS5_EEEvRS6_PT_DpOT0_,"x"
	.linkonce discard
	.globl	_ZNSt16allocator_traitsISaINSt7__cxx1112basic_stringIcSt11char_traitsIcESaIcEEEEE9constructIS5_JS5_EEEvRS6_PT_DpOT0_
	.def	_ZNSt16allocator_traitsISaINSt7__cxx1112basic_stringIcSt11char_traitsIcESaIcEEEEE9constructIS5_JS5_EEEvRS6_PT_DpOT0_;	.scl	2;	.type	32;	.endef
	.seh_proc	_ZNSt16allocator_traitsISaINSt7__cxx1112basic_stringIcSt11char_traitsIcESaIcEEEEE9constructIS5_JS5_EEEvRS6_PT_DpOT0_
_ZNSt16allocator_traitsISaINSt7__cxx1112basic_stringIcSt11char_traitsIcESaIcEEEEE9constructIS5_JS5_EEEvRS6_PT_DpOT0_:
.LFB2718:
	pushq	%rbp
	.seh_pushreg	%rbp
	movq	%rsp, %rbp
	.seh_setframe	%rbp, 0
	subq	$32, %rsp
	.seh_stackalloc	32
	.seh_endprologue
	movq	%rcx, 16(%rbp)
	movq	%rdx, 24(%rbp)
	movq	%r8, 32(%rbp)
	movq	32(%rbp), %rax
	movq	%rax, %rcx
	call	_ZSt7forwardINSt7__cxx1112basic_stringIcSt11char_traitsIcESaIcEEEEOT_RNSt16remove_referenceIS6_E4typeE
	movq	%rax, %rcx
	movq	24(%rbp), %rdx
	movq	16(%rbp), %rax
	movq	%rcx, %r8
	movq	%rax, %rcx
	call	_ZNSt15__new_allocatorINSt7__cxx1112basic_stringIcSt11char_traitsIcESaIcEEEE9constructIS5_JS5_EEEvPT_DpOT0_
	nop
	addq	$32, %rsp
	popq	%rbp
	ret
	.seh_endproc
	.section	.text$_ZNSt6vectorINSt7__cxx1112basic_stringIcSt11char_traitsIcESaIcEEESaIS5_EE3endEv,"x"
	.linkonce discard
	.align 2
	.globl	_ZNSt6vectorINSt7__cxx1112basic_stringIcSt11char_traitsIcESaIcEEESaIS5_EE3endEv
	.def	_ZNSt6vectorINSt7__cxx1112basic_stringIcSt11char_traitsIcESaIcEEESaIS5_EE3endEv;	.scl	2;	.type	32;	.endef
	.seh_proc	_ZNSt6vectorINSt7__cxx1112basic_stringIcSt11char_traitsIcESaIcEEESaIS5_EE3endEv
_ZNSt6vectorINSt7__cxx1112basic_stringIcSt11char_traitsIcESaIcEEESaIS5_EE3endEv:
.LFB2719:
	pushq	%rbp
	.seh_pushreg	%rbp
	movq	%rsp, %rbp
	.seh_setframe	%rbp, 0
	subq	$48, %rsp
	.seh_stackalloc	48
	.seh_endprologue
	movq	%rcx, 16(%rbp)
	movq	16(%rbp), %rax
	leaq	8(%rax), %rdx
	leaq	-8(%rbp), %rax
	movq	%rax, %rcx
	call	_ZN9__gnu_cxx17__normal_iteratorIPNSt7__cxx1112basic_stringIcSt11char_traitsIcESaIcEEESt6vectorIS6_SaIS6_EEEC1ERKS7_
	movq	-8(%rbp), %rax
	addq	$48, %rsp
	popq	%rbp
	ret
	.seh_endproc
	.section .rdata,"dr"
.LC3:
	.ascii "vector::_M_realloc_insert\0"
	.section	.text$_ZNSt6vectorINSt7__cxx1112basic_stringIcSt11char_traitsIcESaIcEEESaIS5_EE17_M_realloc_insertIJS5_EEEvN9__gnu_cxx17__normal_iteratorIPS5_S7_EEDpOT_,"x"
	.linkonce discard
	.align 2
	.globl	_ZNSt6vectorINSt7__cxx1112basic_stringIcSt11char_traitsIcESaIcEEESaIS5_EE17_M_realloc_insertIJS5_EEEvN9__gnu_cxx17__normal_iteratorIPS5_S7_EEDpOT_
	.def	_ZNSt6vectorINSt7__cxx1112basic_stringIcSt11char_traitsIcESaIcEEESaIS5_EE17_M_realloc_insertIJS5_EEEvN9__gnu_cxx17__normal_iteratorIPS5_S7_EEDpOT_;	.scl	2;	.type	32;	.endef
	.seh_proc	_ZNSt6vectorINSt7__cxx1112basic_stringIcSt11char_traitsIcESaIcEEESaIS5_EE17_M_realloc_insertIJS5_EEEvN9__gnu_cxx17__normal_iteratorIPS5_S7_EEDpOT_
_ZNSt6vectorINSt7__cxx1112basic_stringIcSt11char_traitsIcESaIcEEESaIS5_EE17_M_realloc_insertIJS5_EEEvN9__gnu_cxx17__normal_iteratorIPS5_S7_EEDpOT_:
.LFB2720:
	pushq	%rbp
	.seh_pushreg	%rbp
	pushq	%rbx
	.seh_pushreg	%rbx
	subq	$104, %rsp
	.seh_stackalloc	104
	leaq	96(%rsp), %rbp
	.seh_setframe	%rbp, 96
	.seh_endprologue
	movq	%rcx, 32(%rbp)
	movq	%rdx, 40(%rbp)
	movq	%r8, 48(%rbp)
	movq	32(%rbp), %rax
	leaq	.LC3(%rip), %r8
	movl	$1, %edx
	movq	%rax, %rcx
	call	_ZNKSt6vectorINSt7__cxx1112basic_stringIcSt11char_traitsIcESaIcEEESaIS5_EE12_M_check_lenEyPKc
	movq	%rax, -8(%rbp)
	movq	32(%rbp), %rax
	movq	(%rax), %rax
	movq	%rax, -16(%rbp)
	movq	32(%rbp), %rax
	movq	8(%rax), %rax
	movq	%rax, -24(%rbp)
	movq	32(%rbp), %rax
	movq	%rax, %rcx
	call	_ZNSt6vectorINSt7__cxx1112basic_stringIcSt11char_traitsIcESaIcEEESaIS5_EE5beginEv
	movq	%rax, -56(%rbp)
	leaq	-56(%rbp), %rdx
	leaq	40(%rbp), %rax
	movq	%rax, %rcx
	call	_ZN9__gnu_cxxmiIPNSt7__cxx1112basic_stringIcSt11char_traitsIcESaIcEEESt6vectorIS6_SaIS6_EEEENS_17__normal_iteratorIT_T0_E15difference_typeERKSE_SH_
	movq	%rax, -32(%rbp)
	movq	32(%rbp), %rax
	movq	-8(%rbp), %rdx
	movq	%rax, %rcx
	call	_ZNSt12_Vector_baseINSt7__cxx1112basic_stringIcSt11char_traitsIcESaIcEEESaIS5_EE11_M_allocateEy
	movq	%rax, -40(%rbp)
	movq	-40(%rbp), %rax
	movq	%rax, -48(%rbp)
	movq	48(%rbp), %rax
	movq	%rax, %rcx
	call	_ZSt7forwardINSt7__cxx1112basic_stringIcSt11char_traitsIcESaIcEEEEOT_RNSt16remove_referenceIS6_E4typeE
	movq	%rax, %rcx
	movq	-32(%rbp), %rax
	salq	$5, %rax
	movq	%rax, %rdx
	movq	-40(%rbp), %rax
	addq	%rax, %rdx
	movq	32(%rbp), %rax
	movq	%rcx, %r8
	movq	%rax, %rcx
	call	_ZNSt16allocator_traitsISaINSt7__cxx1112basic_stringIcSt11char_traitsIcESaIcEEEEE9constructIS5_JS5_EEEvRS6_PT_DpOT0_
	movq	$0, -48(%rbp)
	movq	32(%rbp), %rax
	movq	%rax, %rcx
	call	_ZNSt12_Vector_baseINSt7__cxx1112basic_stringIcSt11char_traitsIcESaIcEEESaIS5_EE19_M_get_Tp_allocatorEv
	movq	%rax, %rbx
	leaq	40(%rbp), %rax
	movq	%rax, %rcx
	call	_ZNK9__gnu_cxx17__normal_iteratorIPNSt7__cxx1112basic_stringIcSt11char_traitsIcESaIcEEESt6vectorIS6_SaIS6_EEE4baseEv
	movq	(%rax), %rdx
	movq	-40(%rbp), %rcx
	movq	-16(%rbp), %rax
	movq	%rbx, %r9
	movq	%rcx, %r8
	movq	%rax, %rcx
	call	_ZNSt6vectorINSt7__cxx1112basic_stringIcSt11char_traitsIcESaIcEEESaIS5_EE11_S_relocateEPS5_S8_S8_RS6_
	movq	%rax, -48(%rbp)
	addq	$32, -48(%rbp)
	movq	32(%rbp), %rax
	movq	%rax, %rcx
	call	_ZNSt12_Vector_baseINSt7__cxx1112basic_stringIcSt11char_traitsIcESaIcEEESaIS5_EE19_M_get_Tp_allocatorEv
	movq	%rax, %rbx
	leaq	40(%rbp), %rax
	movq	%rax, %rcx
	call	_ZNK9__gnu_cxx17__normal_iteratorIPNSt7__cxx1112basic_stringIcSt11char_traitsIcESaIcEEESt6vectorIS6_SaIS6_EEE4baseEv
	movq	(%rax), %rax
	movq	-48(%rbp), %rcx
	movq	-24(%rbp), %rdx
	movq	%rbx, %r9
	movq	%rcx, %r8
	movq	%rax, %rcx
	call	_ZNSt6vectorINSt7__cxx1112basic_stringIcSt11char_traitsIcESaIcEEESaIS5_EE11_S_relocateEPS5_S8_S8_RS6_
	movq	%rax, -48(%rbp)
	movq	32(%rbp), %rax
	movq	32(%rbp), %rdx
	movq	16(%rdx), %rdx
	subq	-16(%rbp), %rdx
	sarq	$5, %rdx
	movq	%rdx, %rcx
	movq	-16(%rbp), %rdx
	movq	%rcx, %r8
	movq	%rax, %rcx
	call	_ZNSt12_Vector_baseINSt7__cxx1112basic_stringIcSt11char_traitsIcESaIcEEESaIS5_EE13_M_deallocateEPS5_y
	movq	32(%rbp), %rax
	movq	-40(%rbp), %rdx
	movq	%rdx, (%rax)
	movq	32(%rbp), %rax
	movq	-48(%rbp), %rdx
	movq	%rdx, 8(%rax)
	movq	-8(%rbp), %rax
	salq	$5, %rax
	movq	%rax, %rdx
	movq	-40(%rbp), %rax
	addq	%rax, %rdx
	movq	32(%rbp), %rax
	movq	%rdx, 16(%rax)
	nop
	addq	$104, %rsp
	popq	%rbx
	popq	%rbp
	ret
	.seh_endproc
	.section	.text$_ZNSt6vectorINSt7__cxx1112basic_stringIcSt11char_traitsIcESaIcEEESaIS5_EE4backEv,"x"
	.linkonce discard
	.align 2
	.globl	_ZNSt6vectorINSt7__cxx1112basic_stringIcSt11char_traitsIcESaIcEEESaIS5_EE4backEv
	.def	_ZNSt6vectorINSt7__cxx1112basic_stringIcSt11char_traitsIcESaIcEEESaIS5_EE4backEv;	.scl	2;	.type	32;	.endef
	.seh_proc	_ZNSt6vectorINSt7__cxx1112basic_stringIcSt11char_traitsIcESaIcEEESaIS5_EE4backEv
_ZNSt6vectorINSt7__cxx1112basic_stringIcSt11char_traitsIcESaIcEEESaIS5_EE4backEv:
.LFB2724:
	pushq	%rbp
	.seh_pushreg	%rbp
	movq	%rsp, %rbp
	.seh_setframe	%rbp, 0
	subq	$48, %rsp
	.seh_stackalloc	48
	.seh_endprologue
	movq	%rcx, 16(%rbp)
	movq	16(%rbp), %rax
	movq	%rax, %rcx
	call	_ZNSt6vectorINSt7__cxx1112basic_stringIcSt11char_traitsIcESaIcEEESaIS5_EE3endEv
	movq	%rax, -8(%rbp)
	leaq	-8(%rbp), %rax
	movl	$1, %edx
	movq	%rax, %rcx
	call	_ZNK9__gnu_cxx17__normal_iteratorIPNSt7__cxx1112basic_stringIcSt11char_traitsIcESaIcEEESt6vectorIS6_SaIS6_EEEmiEx
	movq	%rax, -16(%rbp)
	leaq	-16(%rbp), %rax
	movq	%rax, %rcx
	call	_ZNK9__gnu_cxx17__normal_iteratorIPNSt7__cxx1112basic_stringIcSt11char_traitsIcESaIcEEESt6vectorIS6_SaIS6_EEEdeEv
	addq	$48, %rsp
	popq	%rbp
	ret
	.seh_endproc
	.section	.text$_ZNSt16allocator_traitsISaINSt7__cxx1112basic_stringIcSt11char_traitsIcESaIcEEEEE37select_on_container_copy_constructionERKS6_,"x"
	.linkonce discard
	.globl	_ZNSt16allocator_traitsISaINSt7__cxx1112basic_stringIcSt11char_traitsIcESaIcEEEEE37select_on_container_copy_constructionERKS6_
	.def	_ZNSt16allocator_traitsISaINSt7__cxx1112basic_stringIcSt11char_traitsIcESaIcEEEEE37select_on_container_copy_constructionERKS6_;	.scl	2;	.type	32;	.endef
	.seh_proc	_ZNSt16allocator_traitsISaINSt7__cxx1112basic_stringIcSt11char_traitsIcESaIcEEEEE37select_on_container_copy_constructionERKS6_
_ZNSt16allocator_traitsISaINSt7__cxx1112basic_stringIcSt11char_traitsIcESaIcEEEEE37select_on_container_copy_constructionERKS6_:
.LFB2725:
	pushq	%rbp
	.seh_pushreg	%rbp
	movq	%rsp, %rbp
	.seh_setframe	%rbp, 0
	subq	$32, %rsp
	.seh_stackalloc	32
	.seh_endprologue
	movq	%rcx, 16(%rbp)
	movq	%rdx, 24(%rbp)
	movq	24(%rbp), %rdx
	movq	16(%rbp), %rax
	movq	%rax, %rcx
	call	_ZNSaINSt7__cxx1112basic_stringIcSt11char_traitsIcESaIcEEEEC1ERKS5_
	movq	16(%rbp), %rax
	addq	$32, %rsp
	popq	%rbp
	ret
	.seh_endproc
	.section	.text$_ZNSt12_Vector_baseINSt7__cxx1112basic_stringIcSt11char_traitsIcESaIcEEESaIS5_EE12_Vector_implC1ERKS6_,"x"
	.linkonce discard
	.align 2
	.globl	_ZNSt12_Vector_baseINSt7__cxx1112basic_stringIcSt11char_traitsIcESaIcEEESaIS5_EE12_Vector_implC1ERKS6_
	.def	_ZNSt12_Vector_baseINSt7__cxx1112basic_stringIcSt11char_traitsIcESaIcEEESaIS5_EE12_Vector_implC1ERKS6_;	.scl	2;	.type	32;	.endef
	.seh_proc	_ZNSt12_Vector_baseINSt7__cxx1112basic_stringIcSt11char_traitsIcESaIcEEESaIS5_EE12_Vector_implC1ERKS6_
_ZNSt12_Vector_baseINSt7__cxx1112basic_stringIcSt11char_traitsIcESaIcEEESaIS5_EE12_Vector_implC1ERKS6_:
.LFB2728:
	pushq	%rbp
	.seh_pushreg	%rbp
	movq	%rsp, %rbp
	.seh_setframe	%rbp, 0
	subq	$32, %rsp
	.seh_stackalloc	32
	.seh_endprologue
	movq	%rcx, 16(%rbp)
	movq	%rdx, 24(%rbp)
	movq	24(%rbp), %rdx
	movq	16(%rbp), %rax
	movq	%rax, %rcx
	call	_ZNSaINSt7__cxx1112basic_stringIcSt11char_traitsIcESaIcEEEEC2ERKS5_
	movq	16(%rbp), %rax
	movq	%rax, %rcx
	call	_ZNSt12_Vector_baseINSt7__cxx1112basic_stringIcSt11char_traitsIcESaIcEEESaIS5_EE17_Vector_impl_dataC2Ev
	nop
	addq	$32, %rsp
	popq	%rbp
	ret
	.seh_endproc
	.section	.text$_ZNSt12_Vector_baseINSt7__cxx1112basic_stringIcSt11char_traitsIcESaIcEEESaIS5_EE17_M_create_storageEy,"x"
	.linkonce discard
	.align 2
	.globl	_ZNSt12_Vector_baseINSt7__cxx1112basic_stringIcSt11char_traitsIcESaIcEEESaIS5_EE17_M_create_storageEy
	.def	_ZNSt12_Vector_baseINSt7__cxx1112basic_stringIcSt11char_traitsIcESaIcEEESaIS5_EE17_M_create_storageEy;	.scl	2;	.type	32;	.endef
	.seh_proc	_ZNSt12_Vector_baseINSt7__cxx1112basic_stringIcSt11char_traitsIcESaIcEEESaIS5_EE17_M_create_storageEy
_ZNSt12_Vector_baseINSt7__cxx1112basic_stringIcSt11char_traitsIcESaIcEEESaIS5_EE17_M_create_storageEy:
.LFB2729:
	pushq	%rbp
	.seh_pushreg	%rbp
	movq	%rsp, %rbp
	.seh_setframe	%rbp, 0
	subq	$32, %rsp
	.seh_stackalloc	32
	.seh_endprologue
	movq	%rcx, 16(%rbp)
	movq	%rdx, 24(%rbp)
	movq	24(%rbp), %rdx
	movq	16(%rbp), %rax
	movq	%rax, %rcx
	call	_ZNSt12_Vector_baseINSt7__cxx1112basic_stringIcSt11char_traitsIcESaIcEEESaIS5_EE11_M_allocateEy
	movq	16(%rbp), %rdx
	movq	%rax, (%rdx)
	movq	16(%rbp), %rax
	movq	(%rax), %rdx
	movq	16(%rbp), %rax
	movq	%rdx, 8(%rax)
	movq	16(%rbp), %rax
	movq	(%rax), %rax
	movq	24(%rbp), %rdx
	salq	$5, %rdx
	addq	%rax, %rdx
	movq	16(%rbp), %rax
	movq	%rdx, 16(%rax)
	nop
	addq	$32, %rsp
	popq	%rbp
	ret
	.seh_endproc
	.section	.text$_ZN9__gnu_cxx17__normal_iteratorIPKNSt7__cxx1112basic_stringIcSt11char_traitsIcESaIcEEESt6vectorIS6_SaIS6_EEEC1ERKS8_,"x"
	.linkonce discard
	.align 2
	.globl	_ZN9__gnu_cxx17__normal_iteratorIPKNSt7__cxx1112basic_stringIcSt11char_traitsIcESaIcEEESt6vectorIS6_SaIS6_EEEC1ERKS8_
	.def	_ZN9__gnu_cxx17__normal_iteratorIPKNSt7__cxx1112basic_stringIcSt11char_traitsIcESaIcEEESt6vectorIS6_SaIS6_EEEC1ERKS8_;	.scl	2;	.type	32;	.endef
	.seh_proc	_ZN9__gnu_cxx17__normal_iteratorIPKNSt7__cxx1112basic_stringIcSt11char_traitsIcESaIcEEESt6vectorIS6_SaIS6_EEEC1ERKS8_
_ZN9__gnu_cxx17__normal_iteratorIPKNSt7__cxx1112basic_stringIcSt11char_traitsIcESaIcEEESt6vectorIS6_SaIS6_EEEC1ERKS8_:
.LFB2732:
	pushq	%rbp
	.seh_pushreg	%rbp
	movq	%rsp, %rbp
	.seh_setframe	%rbp, 0
	.seh_endprologue
	movq	%rcx, 16(%rbp)
	movq	%rdx, 24(%rbp)
	movq	24(%rbp), %rax
	movq	(%rax), %rdx
	movq	16(%rbp), %rax
	movq	%rdx, (%rax)
	nop
	popq	%rbp
	ret
	.seh_endproc
	.section	.text$_ZSt18uninitialized_copyIN9__gnu_cxx17__normal_iteratorIPKNSt7__cxx1112basic_stringIcSt11char_traitsIcESaIcEEESt6vectorIS7_SaIS7_EEEEPS7_ET0_T_SG_SF_,"x"
	.linkonce discard
	.globl	_ZSt18uninitialized_copyIN9__gnu_cxx17__normal_iteratorIPKNSt7__cxx1112basic_stringIcSt11char_traitsIcESaIcEEESt6vectorIS7_SaIS7_EEEEPS7_ET0_T_SG_SF_
	.def	_ZSt18uninitialized_copyIN9__gnu_cxx17__normal_iteratorIPKNSt7__cxx1112basic_stringIcSt11char_traitsIcESaIcEEESt6vectorIS7_SaIS7_EEEEPS7_ET0_T_SG_SF_;	.scl	2;	.type	32;	.endef
	.seh_proc	_ZSt18uninitialized_copyIN9__gnu_cxx17__normal_iteratorIPKNSt7__cxx1112basic_stringIcSt11char_traitsIcESaIcEEESt6vectorIS7_SaIS7_EEEEPS7_ET0_T_SG_SF_
_ZSt18uninitialized_copyIN9__gnu_cxx17__normal_iteratorIPKNSt7__cxx1112basic_stringIcSt11char_traitsIcESaIcEEESt6vectorIS7_SaIS7_EEEEPS7_ET0_T_SG_SF_:
.LFB2733:
	pushq	%rbp
	.seh_pushreg	%rbp
	movq	%rsp, %rbp
	.seh_setframe	%rbp, 0
	subq	$48, %rsp
	.seh_stackalloc	48
	.seh_endprologue
	movq	%rcx, 16(%rbp)
	movq	%rdx, 24(%rbp)
	movq	%r8, 32(%rbp)
	movb	$0, -1(%rbp)
	movb	$0, -2(%rbp)
	movq	32(%rbp), %rcx
	movq	24(%rbp), %rdx
	movq	16(%rbp), %rax
	movq	%rcx, %r8
	movq	%rax, %rcx
	call	_ZNSt20__uninitialized_copyILb0EE13__uninit_copyIN9__gnu_cxx17__normal_iteratorIPKNSt7__cxx1112basic_stringIcSt11char_traitsIcESaIcEEESt6vectorIS9_SaIS9_EEEEPS9_EET0_T_SI_SH_
	addq	$48, %rsp
	popq	%rbp
	ret
	.seh_endproc
	.section	.text$_ZSt19__iterator_categoryIPKcENSt15iterator_traitsIT_E17iterator_categoryERKS3_,"x"
	.linkonce discard
	.globl	_ZSt19__iterator_categoryIPKcENSt15iterator_traitsIT_E17iterator_categoryERKS3_
	.def	_ZSt19__iterator_categoryIPKcENSt15iterator_traitsIT_E17iterator_categoryERKS3_;	.scl	2;	.type	32;	.endef
	.seh_proc	_ZSt19__iterator_categoryIPKcENSt15iterator_traitsIT_E17iterator_categoryERKS3_
_ZSt19__iterator_categoryIPKcENSt15iterator_traitsIT_E17iterator_categoryERKS3_:
.LFB2748:
	pushq	%rbp
	.seh_pushreg	%rbp
	movq	%rsp, %rbp
	.seh_setframe	%rbp, 0
	.seh_endprologue
	movq	%rcx, 16(%rbp)
	nop
	popq	%rbp
	ret
	.seh_endproc
	.section	.text$_ZSt10__distanceIPKcENSt15iterator_traitsIT_E15difference_typeES3_S3_St26random_access_iterator_tag,"x"
	.linkonce discard
	.globl	_ZSt10__distanceIPKcENSt15iterator_traitsIT_E15difference_typeES3_S3_St26random_access_iterator_tag
	.def	_ZSt10__distanceIPKcENSt15iterator_traitsIT_E15difference_typeES3_S3_St26random_access_iterator_tag;	.scl	2;	.type	32;	.endef
	.seh_proc	_ZSt10__distanceIPKcENSt15iterator_traitsIT_E15difference_typeES3_S3_St26random_access_iterator_tag
_ZSt10__distanceIPKcENSt15iterator_traitsIT_E15difference_typeES3_S3_St26random_access_iterator_tag:
.LFB2749:
	pushq	%rbp
	.seh_pushreg	%rbp
	movq	%rsp, %rbp
	.seh_setframe	%rbp, 0
	.seh_endprologue
	movq	%rcx, 16(%rbp)
	movq	%rdx, 24(%rbp)
	movq	24(%rbp), %rax
	subq	16(%rbp), %rax
	popq	%rbp
	ret
	.seh_endproc
	.section	.text$_ZNSt15__new_allocatorINSt7__cxx1112basic_stringIcSt11char_traitsIcESaIcEEEE10deallocateEPS5_y,"x"
	.linkonce discard
	.align 2
	.globl	_ZNSt15__new_allocatorINSt7__cxx1112basic_stringIcSt11char_traitsIcESaIcEEEE10deallocateEPS5_y
	.def	_ZNSt15__new_allocatorINSt7__cxx1112basic_stringIcSt11char_traitsIcESaIcEEEE10deallocateEPS5_y;	.scl	2;	.type	32;	.endef
	.seh_proc	_ZNSt15__new_allocatorINSt7__cxx1112basic_stringIcSt11char_traitsIcESaIcEEEE10deallocateEPS5_y
_ZNSt15__new_allocatorINSt7__cxx1112basic_stringIcSt11char_traitsIcESaIcEEEE10deallocateEPS5_y:
.LFB2789:
	pushq	%rbp
	.seh_pushreg	%rbp
	movq	%rsp, %rbp
	.seh_setframe	%rbp, 0
	subq	$32, %rsp
	.seh_stackalloc	32
	.seh_endprologue
	movq	%rcx, 16(%rbp)
	movq	%rdx, 24(%rbp)
	movq	%r8, 32(%rbp)
	movq	32(%rbp), %rax
	salq	$5, %rax
	movq	%rax, %rdx
	movq	24(%rbp), %rax
	movq	%rax, %rcx
	call	_ZdlPvy
	nop
	addq	$32, %rsp
	popq	%rbp
	ret
	.seh_endproc
	.section	.text$_ZNSt12_Destroy_auxILb0EE9__destroyIPNSt7__cxx1112basic_stringIcSt11char_traitsIcESaIcEEEEEvT_S9_,"x"
	.linkonce discard
	.globl	_ZNSt12_Destroy_auxILb0EE9__destroyIPNSt7__cxx1112basic_stringIcSt11char_traitsIcESaIcEEEEEvT_S9_
	.def	_ZNSt12_Destroy_auxILb0EE9__destroyIPNSt7__cxx1112basic_stringIcSt11char_traitsIcESaIcEEEEEvT_S9_;	.scl	2;	.type	32;	.endef
	.seh_proc	_ZNSt12_Destroy_auxILb0EE9__destroyIPNSt7__cxx1112basic_stringIcSt11char_traitsIcESaIcEEEEEvT_S9_
_ZNSt12_Destroy_auxILb0EE9__destroyIPNSt7__cxx1112basic_stringIcSt11char_traitsIcESaIcEEEEEvT_S9_:
.LFB2790:
	pushq	%rbp
	.seh_pushreg	%rbp
	movq	%rsp, %rbp
	.seh_setframe	%rbp, 0
	subq	$32, %rsp
	.seh_stackalloc	32
	.seh_endprologue
	movq	%rcx, 16(%rbp)
	movq	%rdx, 24(%rbp)
	jmp	.L124
.L125:
	movq	16(%rbp), %rax
	movq	%rax, %rcx
	call	_ZSt11__addressofINSt7__cxx1112basic_stringIcSt11char_traitsIcESaIcEEEEPT_RS6_
	movq	%rax, %rcx
	call	_ZSt8_DestroyINSt7__cxx1112basic_stringIcSt11char_traitsIcESaIcEEEEvPT_
	addq	$32, 16(%rbp)
.L124:
	movq	16(%rbp), %rax
	cmpq	24(%rbp), %rax
	jne	.L125
	nop
	nop
	addq	$32, %rsp
	popq	%rbp
	ret
	.seh_endproc
	.section	.text$_ZNSt15__new_allocatorINSt7__cxx1112basic_stringIcSt11char_traitsIcESaIcEEEE9constructIS5_JS5_EEEvPT_DpOT0_,"x"
	.linkonce discard
	.align 2
	.globl	_ZNSt15__new_allocatorINSt7__cxx1112basic_stringIcSt11char_traitsIcESaIcEEEE9constructIS5_JS5_EEEvPT_DpOT0_
	.def	_ZNSt15__new_allocatorINSt7__cxx1112basic_stringIcSt11char_traitsIcESaIcEEEE9constructIS5_JS5_EEEvPT_DpOT0_;	.scl	2;	.type	32;	.endef
	.seh_proc	_ZNSt15__new_allocatorINSt7__cxx1112basic_stringIcSt11char_traitsIcESaIcEEEE9constructIS5_JS5_EEEvPT_DpOT0_
_ZNSt15__new_allocatorINSt7__cxx1112basic_stringIcSt11char_traitsIcESaIcEEEE9constructIS5_JS5_EEEvPT_DpOT0_:
.LFB2791:
	pushq	%rbp
	.seh_pushreg	%rbp
	pushq	%rbx
	.seh_pushreg	%rbx
	subq	$40, %rsp
	.seh_stackalloc	40
	leaq	32(%rsp), %rbp
	.seh_setframe	%rbp, 32
	.seh_endprologue
	movq	%rcx, 32(%rbp)
	movq	%rdx, 40(%rbp)
	movq	%r8, 48(%rbp)
	movq	40(%rbp), %rax
	movq	%rax, %rdx
	movl	$32, %ecx
	call	_ZnwyPv
	movq	%rax, %rbx
	movq	48(%rbp), %rax
	movq	%rax, %rcx
	call	_ZSt7forwardINSt7__cxx1112basic_stringIcSt11char_traitsIcESaIcEEEEOT_RNSt16remove_referenceIS6_E4typeE
	movq	%rax, %rdx
	movq	%rbx, %rcx
	call	_ZNSt7__cxx1112basic_stringIcSt11char_traitsIcESaIcEEC1EOS4_
	nop
	addq	$40, %rsp
	popq	%rbx
	popq	%rbp
	ret
	.seh_endproc
	.section	.text$_ZN9__gnu_cxx17__normal_iteratorIPNSt7__cxx1112basic_stringIcSt11char_traitsIcESaIcEEESt6vectorIS6_SaIS6_EEEC1ERKS7_,"x"
	.linkonce discard
	.align 2
	.globl	_ZN9__gnu_cxx17__normal_iteratorIPNSt7__cxx1112basic_stringIcSt11char_traitsIcESaIcEEESt6vectorIS6_SaIS6_EEEC1ERKS7_
	.def	_ZN9__gnu_cxx17__normal_iteratorIPNSt7__cxx1112basic_stringIcSt11char_traitsIcESaIcEEESt6vectorIS6_SaIS6_EEEC1ERKS7_;	.scl	2;	.type	32;	.endef
	.seh_proc	_ZN9__gnu_cxx17__normal_iteratorIPNSt7__cxx1112basic_stringIcSt11char_traitsIcESaIcEEESt6vectorIS6_SaIS6_EEEC1ERKS7_
_ZN9__gnu_cxx17__normal_iteratorIPNSt7__cxx1112basic_stringIcSt11char_traitsIcESaIcEEESt6vectorIS6_SaIS6_EEEC1ERKS7_:
.LFB2794:
	pushq	%rbp
	.seh_pushreg	%rbp
	movq	%rsp, %rbp
	.seh_setframe	%rbp, 0
	.seh_endprologue
	movq	%rcx, 16(%rbp)
	movq	%rdx, 24(%rbp)
	movq	24(%rbp), %rax
	movq	(%rax), %rdx
	movq	16(%rbp), %rax
	movq	%rdx, (%rax)
	nop
	popq	%rbp
	ret
	.seh_endproc
	.section	.text$_ZNKSt6vectorINSt7__cxx1112basic_stringIcSt11char_traitsIcESaIcEEESaIS5_EE12_M_check_lenEyPKc,"x"
	.linkonce discard
	.align 2
	.globl	_ZNKSt6vectorINSt7__cxx1112basic_stringIcSt11char_traitsIcESaIcEEESaIS5_EE12_M_check_lenEyPKc
	.def	_ZNKSt6vectorINSt7__cxx1112basic_stringIcSt11char_traitsIcESaIcEEESaIS5_EE12_M_check_lenEyPKc;	.scl	2;	.type	32;	.endef
	.seh_proc	_ZNKSt6vectorINSt7__cxx1112basic_stringIcSt11char_traitsIcESaIcEEESaIS5_EE12_M_check_lenEyPKc
_ZNKSt6vectorINSt7__cxx1112basic_stringIcSt11char_traitsIcESaIcEEESaIS5_EE12_M_check_lenEyPKc:
.LFB2795:
	pushq	%rbp
	.seh_pushreg	%rbp
	pushq	%rbx
	.seh_pushreg	%rbx
	subq	$56, %rsp
	.seh_stackalloc	56
	leaq	48(%rsp), %rbp
	.seh_setframe	%rbp, 48
	.seh_endprologue
	movq	%rcx, 32(%rbp)
	movq	%rdx, 40(%rbp)
	movq	%r8, 48(%rbp)
	movq	32(%rbp), %rax
	movq	%rax, %rcx
	call	_ZNKSt6vectorINSt7__cxx1112basic_stringIcSt11char_traitsIcESaIcEEESaIS5_EE8max_sizeEv
	movq	%rax, %rbx
	movq	32(%rbp), %rax
	movq	%rax, %rcx
	call	_ZNKSt6vectorINSt7__cxx1112basic_stringIcSt11char_traitsIcESaIcEEESaIS5_EE4sizeEv
	subq	%rax, %rbx
	movq	%rbx, %rdx
	movq	40(%rbp), %rax
	cmpq	%rax, %rdx
	setb	%al
	testb	%al, %al
	je	.L129
	movq	48(%rbp), %rax
	movq	%rax, %rcx
	call	_ZSt20__throw_length_errorPKc
.L129:
	movq	32(%rbp), %rax
	movq	%rax, %rcx
	call	_ZNKSt6vectorINSt7__cxx1112basic_stringIcSt11char_traitsIcESaIcEEESaIS5_EE4sizeEv
	movq	%rax, %rbx
	movq	32(%rbp), %rax
	movq	%rax, %rcx
	call	_ZNKSt6vectorINSt7__cxx1112basic_stringIcSt11char_traitsIcESaIcEEESaIS5_EE4sizeEv
	movq	%rax, -16(%rbp)
	leaq	40(%rbp), %rdx
	leaq	-16(%rbp), %rax
	movq	%rax, %rcx
	call	_ZSt3maxIyERKT_S2_S2_
	movq	(%rax), %rax
	addq	%rbx, %rax
	movq	%rax, -8(%rbp)
	movq	32(%rbp), %rax
	movq	%rax, %rcx
	call	_ZNKSt6vectorINSt7__cxx1112basic_stringIcSt11char_traitsIcESaIcEEESaIS5_EE4sizeEv
	cmpq	%rax, -8(%rbp)
	jb	.L130
	movq	32(%rbp), %rax
	movq	%rax, %rcx
	call	_ZNKSt6vectorINSt7__cxx1112basic_stringIcSt11char_traitsIcESaIcEEESaIS5_EE8max_sizeEv
	cmpq	-8(%rbp), %rax
	jnb	.L131
.L130:
	movq	32(%rbp), %rax
	movq	%rax, %rcx
	call	_ZNKSt6vectorINSt7__cxx1112basic_stringIcSt11char_traitsIcESaIcEEESaIS5_EE8max_sizeEv
	jmp	.L132
.L131:
	movq	-8(%rbp), %rax
.L132:
	addq	$56, %rsp
	popq	%rbx
	popq	%rbp
	ret
	.seh_endproc
	.section	.text$_ZNSt6vectorINSt7__cxx1112basic_stringIcSt11char_traitsIcESaIcEEESaIS5_EE5beginEv,"x"
	.linkonce discard
	.align 2
	.globl	_ZNSt6vectorINSt7__cxx1112basic_stringIcSt11char_traitsIcESaIcEEESaIS5_EE5beginEv
	.def	_ZNSt6vectorINSt7__cxx1112basic_stringIcSt11char_traitsIcESaIcEEESaIS5_EE5beginEv;	.scl	2;	.type	32;	.endef
	.seh_proc	_ZNSt6vectorINSt7__cxx1112basic_stringIcSt11char_traitsIcESaIcEEESaIS5_EE5beginEv
_ZNSt6vectorINSt7__cxx1112basic_stringIcSt11char_traitsIcESaIcEEESaIS5_EE5beginEv:
.LFB2796:
	pushq	%rbp
	.seh_pushreg	%rbp
	movq	%rsp, %rbp
	.seh_setframe	%rbp, 0
	subq	$48, %rsp
	.seh_stackalloc	48
	.seh_endprologue
	movq	%rcx, 16(%rbp)
	movq	16(%rbp), %rdx
	leaq	-8(%rbp), %rax
	movq	%rax, %rcx
	call	_ZN9__gnu_cxx17__normal_iteratorIPNSt7__cxx1112basic_stringIcSt11char_traitsIcESaIcEEESt6vectorIS6_SaIS6_EEEC1ERKS7_
	movq	-8(%rbp), %rax
	addq	$48, %rsp
	popq	%rbp
	ret
	.seh_endproc
	.section	.text$_ZN9__gnu_cxxmiIPNSt7__cxx1112basic_stringIcSt11char_traitsIcESaIcEEESt6vectorIS6_SaIS6_EEEENS_17__normal_iteratorIT_T0_E15difference_typeERKSE_SH_,"x"
	.linkonce discard
	.globl	_ZN9__gnu_cxxmiIPNSt7__cxx1112basic_stringIcSt11char_traitsIcESaIcEEESt6vectorIS6_SaIS6_EEEENS_17__normal_iteratorIT_T0_E15difference_typeERKSE_SH_
	.def	_ZN9__gnu_cxxmiIPNSt7__cxx1112basic_stringIcSt11char_traitsIcESaIcEEESt6vectorIS6_SaIS6_EEEENS_17__normal_iteratorIT_T0_E15difference_typeERKSE_SH_;	.scl	2;	.type	32;	.endef
	.seh_proc	_ZN9__gnu_cxxmiIPNSt7__cxx1112basic_stringIcSt11char_traitsIcESaIcEEESt6vectorIS6_SaIS6_EEEENS_17__normal_iteratorIT_T0_E15difference_typeERKSE_SH_
_ZN9__gnu_cxxmiIPNSt7__cxx1112basic_stringIcSt11char_traitsIcESaIcEEESt6vectorIS6_SaIS6_EEEENS_17__normal_iteratorIT_T0_E15difference_typeERKSE_SH_:
.LFB2797:
	pushq	%rbp
	.seh_pushreg	%rbp
	pushq	%rbx
	.seh_pushreg	%rbx
	subq	$40, %rsp
	.seh_stackalloc	40
	leaq	32(%rsp), %rbp
	.seh_setframe	%rbp, 32
	.seh_endprologue
	movq	%rcx, 32(%rbp)
	movq	%rdx, 40(%rbp)
	movq	32(%rbp), %rax
	movq	%rax, %rcx
	call	_ZNK9__gnu_cxx17__normal_iteratorIPNSt7__cxx1112basic_stringIcSt11char_traitsIcESaIcEEESt6vectorIS6_SaIS6_EEE4baseEv
	movq	(%rax), %rbx
	movq	40(%rbp), %rax
	movq	%rax, %rcx
	call	_ZNK9__gnu_cxx17__normal_iteratorIPNSt7__cxx1112basic_stringIcSt11char_traitsIcESaIcEEESt6vectorIS6_SaIS6_EEE4baseEv
	movq	(%rax), %rax
	subq	%rax, %rbx
	movq	%rbx, %rdx
	movq	%rdx, %rax
	sarq	$5, %rax
	addq	$40, %rsp
	popq	%rbx
	popq	%rbp
	ret
	.seh_endproc
	.section	.text$_ZNSt12_Vector_baseINSt7__cxx1112basic_stringIcSt11char_traitsIcESaIcEEESaIS5_EE11_M_allocateEy,"x"
	.linkonce discard
	.align 2
	.globl	_ZNSt12_Vector_baseINSt7__cxx1112basic_stringIcSt11char_traitsIcESaIcEEESaIS5_EE11_M_allocateEy
	.def	_ZNSt12_Vector_baseINSt7__cxx1112basic_stringIcSt11char_traitsIcESaIcEEESaIS5_EE11_M_allocateEy;	.scl	2;	.type	32;	.endef
	.seh_proc	_ZNSt12_Vector_baseINSt7__cxx1112basic_stringIcSt11char_traitsIcESaIcEEESaIS5_EE11_M_allocateEy
_ZNSt12_Vector_baseINSt7__cxx1112basic_stringIcSt11char_traitsIcESaIcEEESaIS5_EE11_M_allocateEy:
.LFB2798:
	pushq	%rbp
	.seh_pushreg	%rbp
	movq	%rsp, %rbp
	.seh_setframe	%rbp, 0
	subq	$32, %rsp
	.seh_stackalloc	32
	.seh_endprologue
	movq	%rcx, 16(%rbp)
	movq	%rdx, 24(%rbp)
	cmpq	$0, 24(%rbp)
	je	.L139
	movq	16(%rbp), %rax
	movq	24(%rbp), %rdx
	movq	%rax, %rcx
	call	_ZNSt16allocator_traitsISaINSt7__cxx1112basic_stringIcSt11char_traitsIcESaIcEEEEE8allocateERS6_y
	jmp	.L141
.L139:
	movl	$0, %eax
.L141:
	addq	$32, %rsp
	popq	%rbp
	ret
	.seh_endproc
	.section	.text$_ZNSt6vectorINSt7__cxx1112basic_stringIcSt11char_traitsIcESaIcEEESaIS5_EE11_S_relocateEPS5_S8_S8_RS6_,"x"
	.linkonce discard
	.globl	_ZNSt6vectorINSt7__cxx1112basic_stringIcSt11char_traitsIcESaIcEEESaIS5_EE11_S_relocateEPS5_S8_S8_RS6_
	.def	_ZNSt6vectorINSt7__cxx1112basic_stringIcSt11char_traitsIcESaIcEEESaIS5_EE11_S_relocateEPS5_S8_S8_RS6_;	.scl	2;	.type	32;	.endef
	.seh_proc	_ZNSt6vectorINSt7__cxx1112basic_stringIcSt11char_traitsIcESaIcEEESaIS5_EE11_S_relocateEPS5_S8_S8_RS6_
_ZNSt6vectorINSt7__cxx1112basic_stringIcSt11char_traitsIcESaIcEEESaIS5_EE11_S_relocateEPS5_S8_S8_RS6_:
.LFB2799:
	pushq	%rbp
	.seh_pushreg	%rbp
	movq	%rsp, %rbp
	.seh_setframe	%rbp, 0
	subq	$32, %rsp
	.seh_stackalloc	32
	.seh_endprologue
	movq	%rcx, 16(%rbp)
	movq	%rdx, 24(%rbp)
	movq	%r8, 32(%rbp)
	movq	%r9, 40(%rbp)
	movq	40(%rbp), %r8
	movq	32(%rbp), %rcx
	movq	24(%rbp), %rdx
	movq	16(%rbp), %rax
	movq	%r8, %r9
	movq	%rcx, %r8
	movq	%rax, %rcx
	call	_ZSt12__relocate_aIPNSt7__cxx1112basic_stringIcSt11char_traitsIcESaIcEEES6_SaIS5_EET0_T_S9_S8_RT1_
	addq	$32, %rsp
	popq	%rbp
	ret
	.seh_endproc
	.section	.text$_ZNK9__gnu_cxx17__normal_iteratorIPNSt7__cxx1112basic_stringIcSt11char_traitsIcESaIcEEESt6vectorIS6_SaIS6_EEE4baseEv,"x"
	.linkonce discard
	.align 2
	.globl	_ZNK9__gnu_cxx17__normal_iteratorIPNSt7__cxx1112basic_stringIcSt11char_traitsIcESaIcEEESt6vectorIS6_SaIS6_EEE4baseEv
	.def	_ZNK9__gnu_cxx17__normal_iteratorIPNSt7__cxx1112basic_stringIcSt11char_traitsIcESaIcEEESt6vectorIS6_SaIS6_EEE4baseEv;	.scl	2;	.type	32;	.endef
	.seh_proc	_ZNK9__gnu_cxx17__normal_iteratorIPNSt7__cxx1112basic_stringIcSt11char_traitsIcESaIcEEESt6vectorIS6_SaIS6_EEE4baseEv
_ZNK9__gnu_cxx17__normal_iteratorIPNSt7__cxx1112basic_stringIcSt11char_traitsIcESaIcEEESt6vectorIS6_SaIS6_EEE4baseEv:
.LFB2800:
	pushq	%rbp
	.seh_pushreg	%rbp
	movq	%rsp, %rbp
	.seh_setframe	%rbp, 0
	.seh_endprologue
	movq	%rcx, 16(%rbp)
	movq	16(%rbp), %rax
	popq	%rbp
	ret
	.seh_endproc
	.section	.text$_ZNSt16allocator_traitsISaINSt7__cxx1112basic_stringIcSt11char_traitsIcESaIcEEEEE7destroyIS5_EEvRS6_PT_,"x"
	.linkonce discard
	.globl	_ZNSt16allocator_traitsISaINSt7__cxx1112basic_stringIcSt11char_traitsIcESaIcEEEEE7destroyIS5_EEvRS6_PT_
	.def	_ZNSt16allocator_traitsISaINSt7__cxx1112basic_stringIcSt11char_traitsIcESaIcEEEEE7destroyIS5_EEvRS6_PT_;	.scl	2;	.type	32;	.endef
	.seh_proc	_ZNSt16allocator_traitsISaINSt7__cxx1112basic_stringIcSt11char_traitsIcESaIcEEEEE7destroyIS5_EEvRS6_PT_
_ZNSt16allocator_traitsISaINSt7__cxx1112basic_stringIcSt11char_traitsIcESaIcEEEEE7destroyIS5_EEvRS6_PT_:
.LFB2801:
	pushq	%rbp
	.seh_pushreg	%rbp
	movq	%rsp, %rbp
	.seh_setframe	%rbp, 0
	subq	$32, %rsp
	.seh_stackalloc	32
	.seh_endprologue
	movq	%rcx, 16(%rbp)
	movq	%rdx, 24(%rbp)
	movq	24(%rbp), %rdx
	movq	16(%rbp), %rax
	movq	%rax, %rcx
	call	_ZNSt15__new_allocatorINSt7__cxx1112basic_stringIcSt11char_traitsIcESaIcEEEE7destroyIS5_EEvPT_
	nop
	addq	$32, %rsp
	popq	%rbp
	ret
	.seh_endproc
	.section	.text$_ZNK9__gnu_cxx17__normal_iteratorIPNSt7__cxx1112basic_stringIcSt11char_traitsIcESaIcEEESt6vectorIS6_SaIS6_EEEmiEx,"x"
	.linkonce discard
	.align 2
	.globl	_ZNK9__gnu_cxx17__normal_iteratorIPNSt7__cxx1112basic_stringIcSt11char_traitsIcESaIcEEESt6vectorIS6_SaIS6_EEEmiEx
	.def	_ZNK9__gnu_cxx17__normal_iteratorIPNSt7__cxx1112basic_stringIcSt11char_traitsIcESaIcEEESt6vectorIS6_SaIS6_EEEmiEx;	.scl	2;	.type	32;	.endef
	.seh_proc	_ZNK9__gnu_cxx17__normal_iteratorIPNSt7__cxx1112basic_stringIcSt11char_traitsIcESaIcEEESt6vectorIS6_SaIS6_EEEmiEx
_ZNK9__gnu_cxx17__normal_iteratorIPNSt7__cxx1112basic_stringIcSt11char_traitsIcESaIcEEESt6vectorIS6_SaIS6_EEEmiEx:
.LFB2802:
	pushq	%rbp
	.seh_pushreg	%rbp
	movq	%rsp, %rbp
	.seh_setframe	%rbp, 0
	subq	$48, %rsp
	.seh_stackalloc	48
	.seh_endprologue
	movq	%rcx, 16(%rbp)
	movq	%rdx, 24(%rbp)
	movq	16(%rbp), %rax
	movq	(%rax), %rax
	movq	24(%rbp), %rdx
	salq	$5, %rdx
	negq	%rdx
	addq	%rdx, %rax
	movq	%rax, -8(%rbp)
	leaq	-8(%rbp), %rdx
	leaq	-16(%rbp), %rax
	movq	%rax, %rcx
	call	_ZN9__gnu_cxx17__normal_iteratorIPNSt7__cxx1112basic_stringIcSt11char_traitsIcESaIcEEESt6vectorIS6_SaIS6_EEEC1ERKS7_
	movq	-16(%rbp), %rax
	addq	$48, %rsp
	popq	%rbp
	ret
	.seh_endproc
	.section	.text$_ZNK9__gnu_cxx17__normal_iteratorIPNSt7__cxx1112basic_stringIcSt11char_traitsIcESaIcEEESt6vectorIS6_SaIS6_EEEdeEv,"x"
	.linkonce discard
	.align 2
	.globl	_ZNK9__gnu_cxx17__normal_iteratorIPNSt7__cxx1112basic_stringIcSt11char_traitsIcESaIcEEESt6vectorIS6_SaIS6_EEEdeEv
	.def	_ZNK9__gnu_cxx17__normal_iteratorIPNSt7__cxx1112basic_stringIcSt11char_traitsIcESaIcEEESt6vectorIS6_SaIS6_EEEdeEv;	.scl	2;	.type	32;	.endef
	.seh_proc	_ZNK9__gnu_cxx17__normal_iteratorIPNSt7__cxx1112basic_stringIcSt11char_traitsIcESaIcEEESt6vectorIS6_SaIS6_EEEdeEv
_ZNK9__gnu_cxx17__normal_iteratorIPNSt7__cxx1112basic_stringIcSt11char_traitsIcESaIcEEESt6vectorIS6_SaIS6_EEEdeEv:
.LFB2803:
	pushq	%rbp
	.seh_pushreg	%rbp
	movq	%rsp, %rbp
	.seh_setframe	%rbp, 0
	.seh_endprologue
	movq	%rcx, 16(%rbp)
	movq	16(%rbp), %rax
	movq	(%rax), %rax
	popq	%rbp
	ret
	.seh_endproc
	.section	.text$_ZNSaINSt7__cxx1112basic_stringIcSt11char_traitsIcESaIcEEEEC2ERKS5_,"x"
	.linkonce discard
	.align 2
	.globl	_ZNSaINSt7__cxx1112basic_stringIcSt11char_traitsIcESaIcEEEEC2ERKS5_
	.def	_ZNSaINSt7__cxx1112basic_stringIcSt11char_traitsIcESaIcEEEEC2ERKS5_;	.scl	2;	.type	32;	.endef
	.seh_proc	_ZNSaINSt7__cxx1112basic_stringIcSt11char_traitsIcESaIcEEEEC2ERKS5_
_ZNSaINSt7__cxx1112basic_stringIcSt11char_traitsIcESaIcEEEEC2ERKS5_:
.LFB2805:
	pushq	%rbp
	.seh_pushreg	%rbp
	movq	%rsp, %rbp
	.seh_setframe	%rbp, 0
	subq	$32, %rsp
	.seh_stackalloc	32
	.seh_endprologue
	movq	%rcx, 16(%rbp)
	movq	%rdx, 24(%rbp)
	movq	24(%rbp), %rdx
	movq	16(%rbp), %rax
	movq	%rax, %rcx
	call	_ZNSt15__new_allocatorINSt7__cxx1112basic_stringIcSt11char_traitsIcESaIcEEEEC2ERKS6_
	nop
	addq	$32, %rsp
	popq	%rbp
	ret
	.seh_endproc
	.section	.text$_ZNSaINSt7__cxx1112basic_stringIcSt11char_traitsIcESaIcEEEEC1ERKS5_,"x"
	.linkonce discard
	.align 2
	.globl	_ZNSaINSt7__cxx1112basic_stringIcSt11char_traitsIcESaIcEEEEC1ERKS5_
	.def	_ZNSaINSt7__cxx1112basic_stringIcSt11char_traitsIcESaIcEEEEC1ERKS5_;	.scl	2;	.type	32;	.endef
	.seh_proc	_ZNSaINSt7__cxx1112basic_stringIcSt11char_traitsIcESaIcEEEEC1ERKS5_
_ZNSaINSt7__cxx1112basic_stringIcSt11char_traitsIcESaIcEEEEC1ERKS5_:
.LFB2806:
	pushq	%rbp
	.seh_pushreg	%rbp
	movq	%rsp, %rbp
	.seh_setframe	%rbp, 0
	subq	$32, %rsp
	.seh_stackalloc	32
	.seh_endprologue
	movq	%rcx, 16(%rbp)
	movq	%rdx, 24(%rbp)
	movq	24(%rbp), %rdx
	movq	16(%rbp), %rax
	movq	%rax, %rcx
	call	_ZNSt15__new_allocatorINSt7__cxx1112basic_stringIcSt11char_traitsIcESaIcEEEEC2ERKS6_
	nop
	addq	$32, %rsp
	popq	%rbp
	ret
	.seh_endproc
	.section	.text$_ZNSt20__uninitialized_copyILb0EE13__uninit_copyIN9__gnu_cxx17__normal_iteratorIPKNSt7__cxx1112basic_stringIcSt11char_traitsIcESaIcEEESt6vectorIS9_SaIS9_EEEEPS9_EET0_T_SI_SH_,"x"
	.linkonce discard
	.globl	_ZNSt20__uninitialized_copyILb0EE13__uninit_copyIN9__gnu_cxx17__normal_iteratorIPKNSt7__cxx1112basic_stringIcSt11char_traitsIcESaIcEEESt6vectorIS9_SaIS9_EEEEPS9_EET0_T_SI_SH_
	.def	_ZNSt20__uninitialized_copyILb0EE13__uninit_copyIN9__gnu_cxx17__normal_iteratorIPKNSt7__cxx1112basic_stringIcSt11char_traitsIcESaIcEEESt6vectorIS9_SaIS9_EEEEPS9_EET0_T_SI_SH_;	.scl	2;	.type	32;	.endef
	.seh_proc	_ZNSt20__uninitialized_copyILb0EE13__uninit_copyIN9__gnu_cxx17__normal_iteratorIPKNSt7__cxx1112basic_stringIcSt11char_traitsIcESaIcEEESt6vectorIS9_SaIS9_EEEEPS9_EET0_T_SI_SH_
_ZNSt20__uninitialized_copyILb0EE13__uninit_copyIN9__gnu_cxx17__normal_iteratorIPKNSt7__cxx1112basic_stringIcSt11char_traitsIcESaIcEEESt6vectorIS9_SaIS9_EEEEPS9_EET0_T_SI_SH_:
.LFB2807:
	pushq	%rbp
	.seh_pushreg	%rbp
	movq	%rsp, %rbp
	.seh_setframe	%rbp, 0
	subq	$32, %rsp
	.seh_stackalloc	32
	.seh_endprologue
	movq	%rcx, 16(%rbp)
	movq	%rdx, 24(%rbp)
	movq	%r8, 32(%rbp)
	movq	32(%rbp), %rcx
	movq	24(%rbp), %rdx
	movq	16(%rbp), %rax
	movq	%rcx, %r8
	movq	%rax, %rcx
	call	_ZSt16__do_uninit_copyIN9__gnu_cxx17__normal_iteratorIPKNSt7__cxx1112basic_stringIcSt11char_traitsIcESaIcEEESt6vectorIS7_SaIS7_EEEEPS7_ET0_T_SG_SF_
	addq	$32, %rsp
	popq	%rbp
	ret
	.seh_endproc
	.section	.text$_ZSt11__addressofINSt7__cxx1112basic_stringIcSt11char_traitsIcESaIcEEEEPT_RS6_,"x"
	.linkonce discard
	.globl	_ZSt11__addressofINSt7__cxx1112basic_stringIcSt11char_traitsIcESaIcEEEEPT_RS6_
	.def	_ZSt11__addressofINSt7__cxx1112basic_stringIcSt11char_traitsIcESaIcEEEEPT_RS6_;	.scl	2;	.type	32;	.endef
	.seh_proc	_ZSt11__addressofINSt7__cxx1112basic_stringIcSt11char_traitsIcESaIcEEEEPT_RS6_
_ZSt11__addressofINSt7__cxx1112basic_stringIcSt11char_traitsIcESaIcEEEEPT_RS6_:
.LFB2829:
	pushq	%rbp
	.seh_pushreg	%rbp
	movq	%rsp, %rbp
	.seh_setframe	%rbp, 0
	.seh_endprologue
	movq	%rcx, 16(%rbp)
	movq	16(%rbp), %rax
	popq	%rbp
	ret
	.seh_endproc
	.section	.text$_ZSt8_DestroyINSt7__cxx1112basic_stringIcSt11char_traitsIcESaIcEEEEvPT_,"x"
	.linkonce discard
	.globl	_ZSt8_DestroyINSt7__cxx1112basic_stringIcSt11char_traitsIcESaIcEEEEvPT_
	.def	_ZSt8_DestroyINSt7__cxx1112basic_stringIcSt11char_traitsIcESaIcEEEEvPT_;	.scl	2;	.type	32;	.endef
	.seh_proc	_ZSt8_DestroyINSt7__cxx1112basic_stringIcSt11char_traitsIcESaIcEEEEvPT_
_ZSt8_DestroyINSt7__cxx1112basic_stringIcSt11char_traitsIcESaIcEEEEvPT_:
.LFB2830:
	pushq	%rbp
	.seh_pushreg	%rbp
	movq	%rsp, %rbp
	.seh_setframe	%rbp, 0
	subq	$32, %rsp
	.seh_stackalloc	32
	.seh_endprologue
	movq	%rcx, 16(%rbp)
	movq	16(%rbp), %rax
	movq	%rax, %rcx
	call	_ZNSt7__cxx1112basic_stringIcSt11char_traitsIcESaIcEED1Ev
	nop
	addq	$32, %rsp
	popq	%rbp
	ret
	.seh_endproc
	.section	.text$_ZNKSt6vectorINSt7__cxx1112basic_stringIcSt11char_traitsIcESaIcEEESaIS5_EE8max_sizeEv,"x"
	.linkonce discard
	.align 2
	.globl	_ZNKSt6vectorINSt7__cxx1112basic_stringIcSt11char_traitsIcESaIcEEESaIS5_EE8max_sizeEv
	.def	_ZNKSt6vectorINSt7__cxx1112basic_stringIcSt11char_traitsIcESaIcEEESaIS5_EE8max_sizeEv;	.scl	2;	.type	32;	.endef
	.seh_proc	_ZNKSt6vectorINSt7__cxx1112basic_stringIcSt11char_traitsIcESaIcEEESaIS5_EE8max_sizeEv
_ZNKSt6vectorINSt7__cxx1112basic_stringIcSt11char_traitsIcESaIcEEESaIS5_EE8max_sizeEv:
.LFB2831:
	pushq	%rbp
	.seh_pushreg	%rbp
	movq	%rsp, %rbp
	.seh_setframe	%rbp, 0
	subq	$32, %rsp
	.seh_stackalloc	32
	.seh_endprologue
	movq	%rcx, 16(%rbp)
	movq	16(%rbp), %rax
	movq	%rax, %rcx
	call	_ZNKSt12_Vector_baseINSt7__cxx1112basic_stringIcSt11char_traitsIcESaIcEEESaIS5_EE19_M_get_Tp_allocatorEv
	movq	%rax, %rcx
	call	_ZNSt6vectorINSt7__cxx1112basic_stringIcSt11char_traitsIcESaIcEEESaIS5_EE11_S_max_sizeERKS6_
	addq	$32, %rsp
	popq	%rbp
	ret
	.seh_endproc
	.section	.text$_ZSt3maxIyERKT_S2_S2_,"x"
	.linkonce discard
	.globl	_ZSt3maxIyERKT_S2_S2_
	.def	_ZSt3maxIyERKT_S2_S2_;	.scl	2;	.type	32;	.endef
	.seh_proc	_ZSt3maxIyERKT_S2_S2_
_ZSt3maxIyERKT_S2_S2_:
.LFB2832:
	pushq	%rbp
	.seh_pushreg	%rbp
	movq	%rsp, %rbp
	.seh_setframe	%rbp, 0
	.seh_endprologue
	movq	%rcx, 16(%rbp)
	movq	%rdx, 24(%rbp)
	movq	16(%rbp), %rax
	movq	(%rax), %rdx
	movq	24(%rbp), %rax
	movq	(%rax), %rax
	cmpq	%rax, %rdx
	jnb	.L161
	movq	24(%rbp), %rax
	jmp	.L162
.L161:
	movq	16(%rbp), %rax
.L162:
	popq	%rbp
	ret
	.seh_endproc
	.section	.text$_ZNSt16allocator_traitsISaINSt7__cxx1112basic_stringIcSt11char_traitsIcESaIcEEEEE8allocateERS6_y,"x"
	.linkonce discard
	.globl	_ZNSt16allocator_traitsISaINSt7__cxx1112basic_stringIcSt11char_traitsIcESaIcEEEEE8allocateERS6_y
	.def	_ZNSt16allocator_traitsISaINSt7__cxx1112basic_stringIcSt11char_traitsIcESaIcEEEEE8allocateERS6_y;	.scl	2;	.type	32;	.endef
	.seh_proc	_ZNSt16allocator_traitsISaINSt7__cxx1112basic_stringIcSt11char_traitsIcESaIcEEEEE8allocateERS6_y
_ZNSt16allocator_traitsISaINSt7__cxx1112basic_stringIcSt11char_traitsIcESaIcEEEEE8allocateERS6_y:
.LFB2833:
	pushq	%rbp
	.seh_pushreg	%rbp
	movq	%rsp, %rbp
	.seh_setframe	%rbp, 0
	subq	$32, %rsp
	.seh_stackalloc	32
	.seh_endprologue
	movq	%rcx, 16(%rbp)
	movq	%rdx, 24(%rbp)
	movq	24(%rbp), %rdx
	movq	16(%rbp), %rax
	movl	$0, %r8d
	movq	%rax, %rcx
	call	_ZNSt15__new_allocatorINSt7__cxx1112basic_stringIcSt11char_traitsIcESaIcEEEE8allocateEyPKv
	addq	$32, %rsp
	popq	%rbp
	ret
	.seh_endproc
	.section	.text$_ZSt12__relocate_aIPNSt7__cxx1112basic_stringIcSt11char_traitsIcESaIcEEES6_SaIS5_EET0_T_S9_S8_RT1_,"x"
	.linkonce discard
	.globl	_ZSt12__relocate_aIPNSt7__cxx1112basic_stringIcSt11char_traitsIcESaIcEEES6_SaIS5_EET0_T_S9_S8_RT1_
	.def	_ZSt12__relocate_aIPNSt7__cxx1112basic_stringIcSt11char_traitsIcESaIcEEES6_SaIS5_EET0_T_S9_S8_RT1_;	.scl	2;	.type	32;	.endef
	.seh_proc	_ZSt12__relocate_aIPNSt7__cxx1112basic_stringIcSt11char_traitsIcESaIcEEES6_SaIS5_EET0_T_S9_S8_RT1_
_ZSt12__relocate_aIPNSt7__cxx1112basic_stringIcSt11char_traitsIcESaIcEEES6_SaIS5_EET0_T_S9_S8_RT1_:
.LFB2834:
	pushq	%rbp
	.seh_pushreg	%rbp
	pushq	%rsi
	.seh_pushreg	%rsi
	pushq	%rbx
	.seh_pushreg	%rbx
	subq	$32, %rsp
	.seh_stackalloc	32
	leaq	32(%rsp), %rbp
	.seh_setframe	%rbp, 32
	.seh_endprologue
	movq	%rcx, 32(%rbp)
	movq	%rdx, 40(%rbp)
	movq	%r8, 48(%rbp)
	movq	%r9, 56(%rbp)
	movq	48(%rbp), %rax
	movq	%rax, %rcx
	call	_ZSt12__niter_baseIPNSt7__cxx1112basic_stringIcSt11char_traitsIcESaIcEEEET_S7_
	movq	%rax, %rsi
	movq	40(%rbp), %rax
	movq	%rax, %rcx
	call	_ZSt12__niter_baseIPNSt7__cxx1112basic_stringIcSt11char_traitsIcESaIcEEEET_S7_
	movq	%rax, %rbx
	movq	32(%rbp), %rax
	movq	%rax, %rcx
	call	_ZSt12__niter_baseIPNSt7__cxx1112basic_stringIcSt11char_traitsIcESaIcEEEET_S7_
	movq	56(%rbp), %rdx
	movq	%rdx, %r9
	movq	%rsi, %r8
	movq	%rbx, %rdx
	movq	%rax, %rcx
	call	_ZSt14__relocate_a_1IPNSt7__cxx1112basic_stringIcSt11char_traitsIcESaIcEEES6_SaIS5_EET0_T_S9_S8_RT1_
	addq	$32, %rsp
	popq	%rbx
	popq	%rsi
	popq	%rbp
	ret
	.seh_endproc
	.section	.text$_ZNSt15__new_allocatorINSt7__cxx1112basic_stringIcSt11char_traitsIcESaIcEEEE7destroyIS5_EEvPT_,"x"
	.linkonce discard
	.align 2
	.globl	_ZNSt15__new_allocatorINSt7__cxx1112basic_stringIcSt11char_traitsIcESaIcEEEE7destroyIS5_EEvPT_
	.def	_ZNSt15__new_allocatorINSt7__cxx1112basic_stringIcSt11char_traitsIcESaIcEEEE7destroyIS5_EEvPT_;	.scl	2;	.type	32;	.endef
	.seh_proc	_ZNSt15__new_allocatorINSt7__cxx1112basic_stringIcSt11char_traitsIcESaIcEEEE7destroyIS5_EEvPT_
_ZNSt15__new_allocatorINSt7__cxx1112basic_stringIcSt11char_traitsIcESaIcEEEE7destroyIS5_EEvPT_:
.LFB2835:
	pushq	%rbp
	.seh_pushreg	%rbp
	movq	%rsp, %rbp
	.seh_setframe	%rbp, 0
	subq	$32, %rsp
	.seh_stackalloc	32
	.seh_endprologue
	movq	%rcx, 16(%rbp)
	movq	%rdx, 24(%rbp)
	movq	24(%rbp), %rax
	movq	%rax, %rcx
	call	_ZNSt7__cxx1112basic_stringIcSt11char_traitsIcESaIcEED1Ev
	nop
	addq	$32, %rsp
	popq	%rbp
	ret
	.seh_endproc
	.section	.text$_ZNSt15__new_allocatorINSt7__cxx1112basic_stringIcSt11char_traitsIcESaIcEEEEC2ERKS6_,"x"
	.linkonce discard
	.align 2
	.globl	_ZNSt15__new_allocatorINSt7__cxx1112basic_stringIcSt11char_traitsIcESaIcEEEEC2ERKS6_
	.def	_ZNSt15__new_allocatorINSt7__cxx1112basic_stringIcSt11char_traitsIcESaIcEEEEC2ERKS6_;	.scl	2;	.type	32;	.endef
	.seh_proc	_ZNSt15__new_allocatorINSt7__cxx1112basic_stringIcSt11char_traitsIcESaIcEEEEC2ERKS6_
_ZNSt15__new_allocatorINSt7__cxx1112basic_stringIcSt11char_traitsIcESaIcEEEEC2ERKS6_:
.LFB2837:
	pushq	%rbp
	.seh_pushreg	%rbp
	movq	%rsp, %rbp
	.seh_setframe	%rbp, 0
	.seh_endprologue
	movq	%rcx, 16(%rbp)
	movq	%rdx, 24(%rbp)
	nop
	popq	%rbp
	ret
	.seh_endproc
	.section	.text$_ZSt16__do_uninit_copyIN9__gnu_cxx17__normal_iteratorIPKNSt7__cxx1112basic_stringIcSt11char_traitsIcESaIcEEESt6vectorIS7_SaIS7_EEEEPS7_ET0_T_SG_SF_,"x"
	.linkonce discard
	.globl	_ZSt16__do_uninit_copyIN9__gnu_cxx17__normal_iteratorIPKNSt7__cxx1112basic_stringIcSt11char_traitsIcESaIcEEESt6vectorIS7_SaIS7_EEEEPS7_ET0_T_SG_SF_
	.def	_ZSt16__do_uninit_copyIN9__gnu_cxx17__normal_iteratorIPKNSt7__cxx1112basic_stringIcSt11char_traitsIcESaIcEEESt6vectorIS7_SaIS7_EEEEPS7_ET0_T_SG_SF_;	.scl	2;	.type	32;	.endef
	.seh_proc	_ZSt16__do_uninit_copyIN9__gnu_cxx17__normal_iteratorIPKNSt7__cxx1112basic_stringIcSt11char_traitsIcESaIcEEESt6vectorIS7_SaIS7_EEEEPS7_ET0_T_SG_SF_
_ZSt16__do_uninit_copyIN9__gnu_cxx17__normal_iteratorIPKNSt7__cxx1112basic_stringIcSt11char_traitsIcESaIcEEESt6vectorIS7_SaIS7_EEEEPS7_ET0_T_SG_SF_:
.LFB2839:
	pushq	%rbp
	.seh_pushreg	%rbp
	pushq	%rbx
	.seh_pushreg	%rbx
	subq	$56, %rsp
	.seh_stackalloc	56
	leaq	48(%rsp), %rbp
	.seh_setframe	%rbp, 48
	.seh_endprologue
	movq	%rcx, 32(%rbp)
	movq	%rdx, 40(%rbp)
	movq	%r8, 48(%rbp)
	movq	48(%rbp), %rax
	movq	%rax, -8(%rbp)
	jmp	.L170
.L171:
	leaq	32(%rbp), %rcx
	call	_ZNK9__gnu_cxx17__normal_iteratorIPKNSt7__cxx1112basic_stringIcSt11char_traitsIcESaIcEEESt6vectorIS6_SaIS6_EEEdeEv
	movq	%rax, %rbx
	movq	-8(%rbp), %rax
	movq	%rax, %rcx
	call	_ZSt11__addressofINSt7__cxx1112basic_stringIcSt11char_traitsIcESaIcEEEEPT_RS6_
	movq	%rbx, %rdx
	movq	%rax, %rcx
.LEHB17:
	call	_ZSt10_ConstructINSt7__cxx1112basic_stringIcSt11char_traitsIcESaIcEEEJRKS5_EEvPT_DpOT0_
.LEHE17:
	leaq	32(%rbp), %rcx
	call	_ZN9__gnu_cxx17__normal_iteratorIPKNSt7__cxx1112basic_stringIcSt11char_traitsIcESaIcEEESt6vectorIS6_SaIS6_EEEppEv
	addq	$32, -8(%rbp)
.L170:
	leaq	40(%rbp), %rax
	movq	%rax, %rdx
	leaq	32(%rbp), %rcx
	call	_ZN9__gnu_cxxneIPKNSt7__cxx1112basic_stringIcSt11char_traitsIcESaIcEEESt6vectorIS6_SaIS6_EEEEbRKNS_17__normal_iteratorIT_T0_EESH_
	testb	%al, %al
	jne	.L171
	movq	-8(%rbp), %rax
	jmp	.L177
.L175:
	movq	%rax, %rcx
	call	__cxa_begin_catch
	movq	-8(%rbp), %rdx
	movq	48(%rbp), %rax
	movq	%rax, %rcx
.LEHB18:
	call	_ZSt8_DestroyIPNSt7__cxx1112basic_stringIcSt11char_traitsIcESaIcEEEEvT_S7_
	call	__cxa_rethrow
.LEHE18:
.L176:
	movq	%rax, %rbx
	call	__cxa_end_catch
	movq	%rbx, %rax
	movq	%rax, %rcx
.LEHB19:
	call	_Unwind_Resume
.LEHE19:
.L177:
	addq	$56, %rsp
	popq	%rbx
	popq	%rbp
	ret
	.seh_handler	__gxx_personality_seh0, @unwind, @except
	.seh_handlerdata
	.align 4
.LLSDA2839:
	.byte	0xff
	.byte	0x9b
	.uleb128 .LLSDATT2839-.LLSDATTD2839
.LLSDATTD2839:
	.byte	0x1
	.uleb128 .LLSDACSE2839-.LLSDACSB2839
.LLSDACSB2839:
	.uleb128 .LEHB17-.LFB2839
	.uleb128 .LEHE17-.LEHB17
	.uleb128 .L175-.LFB2839
	.uleb128 0x1
	.uleb128 .LEHB18-.LFB2839
	.uleb128 .LEHE18-.LEHB18
	.uleb128 .L176-.LFB2839
	.uleb128 0
	.uleb128 .LEHB19-.LFB2839
	.uleb128 .LEHE19-.LEHB19
	.uleb128 0
	.uleb128 0
.LLSDACSE2839:
	.byte	0x1
	.byte	0
	.align 4
	.long	0

.LLSDATT2839:
	.section	.text$_ZSt16__do_uninit_copyIN9__gnu_cxx17__normal_iteratorIPKNSt7__cxx1112basic_stringIcSt11char_traitsIcESaIcEEESt6vectorIS7_SaIS7_EEEEPS7_ET0_T_SG_SF_,"x"
	.linkonce discard
	.seh_endproc
	.section	.text$_ZNSt6vectorINSt7__cxx1112basic_stringIcSt11char_traitsIcESaIcEEESaIS5_EE11_S_max_sizeERKS6_,"x"
	.linkonce discard
	.globl	_ZNSt6vectorINSt7__cxx1112basic_stringIcSt11char_traitsIcESaIcEEESaIS5_EE11_S_max_sizeERKS6_
	.def	_ZNSt6vectorINSt7__cxx1112basic_stringIcSt11char_traitsIcESaIcEEESaIS5_EE11_S_max_sizeERKS6_;	.scl	2;	.type	32;	.endef
	.seh_proc	_ZNSt6vectorINSt7__cxx1112basic_stringIcSt11char_traitsIcESaIcEEESaIS5_EE11_S_max_sizeERKS6_
_ZNSt6vectorINSt7__cxx1112basic_stringIcSt11char_traitsIcESaIcEEESaIS5_EE11_S_max_sizeERKS6_:
.LFB2849:
	pushq	%rbp
	.seh_pushreg	%rbp
	movq	%rsp, %rbp
	.seh_setframe	%rbp, 0
	subq	$48, %rsp
	.seh_stackalloc	48
	.seh_endprologue
	movq	%rcx, 16(%rbp)
	movabsq	$288230376151711743, %rax
	movq	%rax, -8(%rbp)
	movq	16(%rbp), %rax
	movq	%rax, %rcx
	call	_ZNSt16allocator_traitsISaINSt7__cxx1112basic_stringIcSt11char_traitsIcESaIcEEEEE8max_sizeERKS6_
	movq	%rax, -16(%rbp)
	leaq	-16(%rbp), %rdx
	leaq	-8(%rbp), %rax
	movq	%rax, %rcx
	call	_ZSt3minIyERKT_S2_S2_
	movq	(%rax), %rax
	addq	$48, %rsp
	popq	%rbp
	ret
	.seh_endproc
	.section	.text$_ZNSt15__new_allocatorINSt7__cxx1112basic_stringIcSt11char_traitsIcESaIcEEEE8allocateEyPKv,"x"
	.linkonce discard
	.align 2
	.globl	_ZNSt15__new_allocatorINSt7__cxx1112basic_stringIcSt11char_traitsIcESaIcEEEE8allocateEyPKv
	.def	_ZNSt15__new_allocatorINSt7__cxx1112basic_stringIcSt11char_traitsIcESaIcEEEE8allocateEyPKv;	.scl	2;	.type	32;	.endef
	.seh_proc	_ZNSt15__new_allocatorINSt7__cxx1112basic_stringIcSt11char_traitsIcESaIcEEEE8allocateEyPKv
_ZNSt15__new_allocatorINSt7__cxx1112basic_stringIcSt11char_traitsIcESaIcEEEE8allocateEyPKv:
.LFB2850:
	pushq	%rbp
	.seh_pushreg	%rbp
	movq	%rsp, %rbp
	.seh_setframe	%rbp, 0
	subq	$32, %rsp
	.seh_stackalloc	32
	.seh_endprologue
	movq	%rcx, 16(%rbp)
	movq	%rdx, 24(%rbp)
	movq	%r8, 32(%rbp)
	movq	16(%rbp), %rax
	movq	%rax, %rcx
	call	_ZNKSt15__new_allocatorINSt7__cxx1112basic_stringIcSt11char_traitsIcESaIcEEEE11_M_max_sizeEv
	cmpq	24(%rbp), %rax
	setb	%al
	movzbl	%al, %eax
	testl	%eax, %eax
	setne	%al
	testb	%al, %al
	je	.L181
	movabsq	$576460752303423487, %rax
	cmpq	24(%rbp), %rax
	jnb	.L182
	call	_ZSt28__throw_bad_array_new_lengthv
.L182:
	call	_ZSt17__throw_bad_allocv
.L181:
	movq	24(%rbp), %rax
	salq	$5, %rax
	movq	%rax, %rcx
	call	_Znwy
	nop
	addq	$32, %rsp
	popq	%rbp
	ret
	.seh_endproc
	.section	.text$_ZSt12__niter_baseIPNSt7__cxx1112basic_stringIcSt11char_traitsIcESaIcEEEET_S7_,"x"
	.linkonce discard
	.globl	_ZSt12__niter_baseIPNSt7__cxx1112basic_stringIcSt11char_traitsIcESaIcEEEET_S7_
	.def	_ZSt12__niter_baseIPNSt7__cxx1112basic_stringIcSt11char_traitsIcESaIcEEEET_S7_;	.scl	2;	.type	32;	.endef
	.seh_proc	_ZSt12__niter_baseIPNSt7__cxx1112basic_stringIcSt11char_traitsIcESaIcEEEET_S7_
_ZSt12__niter_baseIPNSt7__cxx1112basic_stringIcSt11char_traitsIcESaIcEEEET_S7_:
.LFB2851:
	pushq	%rbp
	.seh_pushreg	%rbp
	movq	%rsp, %rbp
	.seh_setframe	%rbp, 0
	.seh_endprologue
	movq	%rcx, 16(%rbp)
	movq	16(%rbp), %rax
	popq	%rbp
	ret
	.seh_endproc
	.section	.text$_ZSt14__relocate_a_1IPNSt7__cxx1112basic_stringIcSt11char_traitsIcESaIcEEES6_SaIS5_EET0_T_S9_S8_RT1_,"x"
	.linkonce discard
	.globl	_ZSt14__relocate_a_1IPNSt7__cxx1112basic_stringIcSt11char_traitsIcESaIcEEES6_SaIS5_EET0_T_S9_S8_RT1_
	.def	_ZSt14__relocate_a_1IPNSt7__cxx1112basic_stringIcSt11char_traitsIcESaIcEEES6_SaIS5_EET0_T_S9_S8_RT1_;	.scl	2;	.type	32;	.endef
	.seh_proc	_ZSt14__relocate_a_1IPNSt7__cxx1112basic_stringIcSt11char_traitsIcESaIcEEES6_SaIS5_EET0_T_S9_S8_RT1_
_ZSt14__relocate_a_1IPNSt7__cxx1112basic_stringIcSt11char_traitsIcESaIcEEES6_SaIS5_EET0_T_S9_S8_RT1_:
.LFB2852:
	pushq	%rbp
	.seh_pushreg	%rbp
	pushq	%rbx
	.seh_pushreg	%rbx
	subq	$56, %rsp
	.seh_stackalloc	56
	leaq	48(%rsp), %rbp
	.seh_setframe	%rbp, 48
	.seh_endprologue
	movq	%rcx, 32(%rbp)
	movq	%rdx, 40(%rbp)
	movq	%r8, 48(%rbp)
	movq	%r9, 56(%rbp)
	movq	48(%rbp), %rax
	movq	%rax, -8(%rbp)
	jmp	.L187
.L188:
	movq	32(%rbp), %rax
	movq	%rax, %rcx
	call	_ZSt11__addressofINSt7__cxx1112basic_stringIcSt11char_traitsIcESaIcEEEEPT_RS6_
	movq	%rax, %rbx
	movq	-8(%rbp), %rax
	movq	%rax, %rcx
	call	_ZSt11__addressofINSt7__cxx1112basic_stringIcSt11char_traitsIcESaIcEEEEPT_RS6_
	movq	56(%rbp), %rdx
	movq	%rdx, %r8
	movq	%rbx, %rdx
	movq	%rax, %rcx
	call	_ZSt19__relocate_object_aINSt7__cxx1112basic_stringIcSt11char_traitsIcESaIcEEES5_SaIS5_EEvPT_PT0_RT1_
	addq	$32, 32(%rbp)
	addq	$32, -8(%rbp)
.L187:
	movq	32(%rbp), %rax
	cmpq	40(%rbp), %rax
	jne	.L188
	movq	-8(%rbp), %rax
	addq	$56, %rsp
	popq	%rbx
	popq	%rbp
	ret
	.seh_endproc
	.section	.text$_ZN9__gnu_cxxneIPKNSt7__cxx1112basic_stringIcSt11char_traitsIcESaIcEEESt6vectorIS6_SaIS6_EEEEbRKNS_17__normal_iteratorIT_T0_EESH_,"x"
	.linkonce discard
	.globl	_ZN9__gnu_cxxneIPKNSt7__cxx1112basic_stringIcSt11char_traitsIcESaIcEEESt6vectorIS6_SaIS6_EEEEbRKNS_17__normal_iteratorIT_T0_EESH_
	.def	_ZN9__gnu_cxxneIPKNSt7__cxx1112basic_stringIcSt11char_traitsIcESaIcEEESt6vectorIS6_SaIS6_EEEEbRKNS_17__normal_iteratorIT_T0_EESH_;	.scl	2;	.type	32;	.endef
	.seh_proc	_ZN9__gnu_cxxneIPKNSt7__cxx1112basic_stringIcSt11char_traitsIcESaIcEEESt6vectorIS6_SaIS6_EEEEbRKNS_17__normal_iteratorIT_T0_EESH_
_ZN9__gnu_cxxneIPKNSt7__cxx1112basic_stringIcSt11char_traitsIcESaIcEEESt6vectorIS6_SaIS6_EEEEbRKNS_17__normal_iteratorIT_T0_EESH_:
.LFB2853:
	pushq	%rbp
	.seh_pushreg	%rbp
	pushq	%rbx
	.seh_pushreg	%rbx
	subq	$40, %rsp
	.seh_stackalloc	40
	leaq	32(%rsp), %rbp
	.seh_setframe	%rbp, 32
	.seh_endprologue
	movq	%rcx, 32(%rbp)
	movq	%rdx, 40(%rbp)
	movq	32(%rbp), %rax
	movq	%rax, %rcx
	call	_ZNK9__gnu_cxx17__normal_iteratorIPKNSt7__cxx1112basic_stringIcSt11char_traitsIcESaIcEEESt6vectorIS6_SaIS6_EEE4baseEv
	movq	(%rax), %rbx
	movq	40(%rbp), %rax
	movq	%rax, %rcx
	call	_ZNK9__gnu_cxx17__normal_iteratorIPKNSt7__cxx1112basic_stringIcSt11char_traitsIcESaIcEEESt6vectorIS6_SaIS6_EEE4baseEv
	movq	(%rax), %rax
	cmpq	%rax, %rbx
	setne	%al
	addq	$40, %rsp
	popq	%rbx
	popq	%rbp
	ret
	.seh_endproc
	.section	.text$_ZN9__gnu_cxx17__normal_iteratorIPKNSt7__cxx1112basic_stringIcSt11char_traitsIcESaIcEEESt6vectorIS6_SaIS6_EEEppEv,"x"
	.linkonce discard
	.align 2
	.globl	_ZN9__gnu_cxx17__normal_iteratorIPKNSt7__cxx1112basic_stringIcSt11char_traitsIcESaIcEEESt6vectorIS6_SaIS6_EEEppEv
	.def	_ZN9__gnu_cxx17__normal_iteratorIPKNSt7__cxx1112basic_stringIcSt11char_traitsIcESaIcEEESt6vectorIS6_SaIS6_EEEppEv;	.scl	2;	.type	32;	.endef
	.seh_proc	_ZN9__gnu_cxx17__normal_iteratorIPKNSt7__cxx1112basic_stringIcSt11char_traitsIcESaIcEEESt6vectorIS6_SaIS6_EEEppEv
_ZN9__gnu_cxx17__normal_iteratorIPKNSt7__cxx1112basic_stringIcSt11char_traitsIcESaIcEEESt6vectorIS6_SaIS6_EEEppEv:
.LFB2854:
	pushq	%rbp
	.seh_pushreg	%rbp
	movq	%rsp, %rbp
	.seh_setframe	%rbp, 0
	.seh_endprologue
	movq	%rcx, 16(%rbp)
	movq	16(%rbp), %rax
	movq	(%rax), %rax
	leaq	32(%rax), %rdx
	movq	16(%rbp), %rax
	movq	%rdx, (%rax)
	movq	16(%rbp), %rax
	popq	%rbp
	ret
	.seh_endproc
	.section	.text$_ZNK9__gnu_cxx17__normal_iteratorIPKNSt7__cxx1112basic_stringIcSt11char_traitsIcESaIcEEESt6vectorIS6_SaIS6_EEEdeEv,"x"
	.linkonce discard
	.align 2
	.globl	_ZNK9__gnu_cxx17__normal_iteratorIPKNSt7__cxx1112basic_stringIcSt11char_traitsIcESaIcEEESt6vectorIS6_SaIS6_EEEdeEv
	.def	_ZNK9__gnu_cxx17__normal_iteratorIPKNSt7__cxx1112basic_stringIcSt11char_traitsIcESaIcEEESt6vectorIS6_SaIS6_EEEdeEv;	.scl	2;	.type	32;	.endef
	.seh_proc	_ZNK9__gnu_cxx17__normal_iteratorIPKNSt7__cxx1112basic_stringIcSt11char_traitsIcESaIcEEESt6vectorIS6_SaIS6_EEEdeEv
_ZNK9__gnu_cxx17__normal_iteratorIPKNSt7__cxx1112basic_stringIcSt11char_traitsIcESaIcEEESt6vectorIS6_SaIS6_EEEdeEv:
.LFB2855:
	pushq	%rbp
	.seh_pushreg	%rbp
	movq	%rsp, %rbp
	.seh_setframe	%rbp, 0
	.seh_endprologue
	movq	%rcx, 16(%rbp)
	movq	16(%rbp), %rax
	movq	(%rax), %rax
	popq	%rbp
	ret
	.seh_endproc
	.section	.text$_ZSt10_ConstructINSt7__cxx1112basic_stringIcSt11char_traitsIcESaIcEEEJRKS5_EEvPT_DpOT0_,"x"
	.linkonce discard
	.globl	_ZSt10_ConstructINSt7__cxx1112basic_stringIcSt11char_traitsIcESaIcEEEJRKS5_EEvPT_DpOT0_
	.def	_ZSt10_ConstructINSt7__cxx1112basic_stringIcSt11char_traitsIcESaIcEEEJRKS5_EEvPT_DpOT0_;	.scl	2;	.type	32;	.endef
	.seh_proc	_ZSt10_ConstructINSt7__cxx1112basic_stringIcSt11char_traitsIcESaIcEEEJRKS5_EEvPT_DpOT0_
_ZSt10_ConstructINSt7__cxx1112basic_stringIcSt11char_traitsIcESaIcEEEJRKS5_EEvPT_DpOT0_:
.LFB2856:
	pushq	%rbp
	.seh_pushreg	%rbp
	pushq	%r12
	.seh_pushreg	%r12
	pushq	%rdi
	.seh_pushreg	%rdi
	pushq	%rsi
	.seh_pushreg	%rsi
	pushq	%rbx
	.seh_pushreg	%rbx
	subq	$32, %rsp
	.seh_stackalloc	32
	leaq	32(%rsp), %rbp
	.seh_setframe	%rbp, 32
	.seh_endprologue
	movq	%rcx, 48(%rbp)
	movq	%rdx, 56(%rbp)
	movq	48(%rbp), %rbx
	movq	%rbx, %rdx
	movl	$32, %ecx
	call	_ZnwyPv
	movq	%rax, %rsi
	movl	$1, %r12d
	movq	56(%rbp), %rax
	movq	%rax, %rcx
	call	_ZSt7forwardIRKNSt7__cxx1112basic_stringIcSt11char_traitsIcESaIcEEEEOT_RNSt16remove_referenceIS8_E4typeE
	movq	%rax, %rdx
	movq	%rsi, %rcx
.LEHB20:
	call	_ZNSt7__cxx1112basic_stringIcSt11char_traitsIcESaIcEEC1ERKS4_
.LEHE20:
	jmp	.L200
.L199:
	movq	%rax, %rdi
	testb	%r12b, %r12b
	je	.L198
	movq	%rbx, %rdx
	movq	%rsi, %rcx
	call	_ZdlPvS_
.L198:
	movq	%rdi, %rax
	movq	%rax, %rcx
.LEHB21:
	call	_Unwind_Resume
	nop
.LEHE21:
.L200:
	addq	$32, %rsp
	popq	%rbx
	popq	%rsi
	popq	%rdi
	popq	%r12
	popq	%rbp
	ret
	.seh_handler	__gxx_personality_seh0, @unwind, @except
	.seh_handlerdata
.LLSDA2856:
	.byte	0xff
	.byte	0xff
	.byte	0x1
	.uleb128 .LLSDACSE2856-.LLSDACSB2856
.LLSDACSB2856:
	.uleb128 .LEHB20-.LFB2856
	.uleb128 .LEHE20-.LEHB20
	.uleb128 .L199-.LFB2856
	.uleb128 0
	.uleb128 .LEHB21-.LFB2856
	.uleb128 .LEHE21-.LEHB21
	.uleb128 0
	.uleb128 0
.LLSDACSE2856:
	.section	.text$_ZSt10_ConstructINSt7__cxx1112basic_stringIcSt11char_traitsIcESaIcEEEJRKS5_EEvPT_DpOT0_,"x"
	.linkonce discard
	.seh_endproc
	.section	.text$_ZNSt16allocator_traitsISaINSt7__cxx1112basic_stringIcSt11char_traitsIcESaIcEEEEE8max_sizeERKS6_,"x"
	.linkonce discard
	.globl	_ZNSt16allocator_traitsISaINSt7__cxx1112basic_stringIcSt11char_traitsIcESaIcEEEEE8max_sizeERKS6_
	.def	_ZNSt16allocator_traitsISaINSt7__cxx1112basic_stringIcSt11char_traitsIcESaIcEEEEE8max_sizeERKS6_;	.scl	2;	.type	32;	.endef
	.seh_proc	_ZNSt16allocator_traitsISaINSt7__cxx1112basic_stringIcSt11char_traitsIcESaIcEEEEE8max_sizeERKS6_
_ZNSt16allocator_traitsISaINSt7__cxx1112basic_stringIcSt11char_traitsIcESaIcEEEEE8max_sizeERKS6_:
.LFB2861:
	pushq	%rbp
	.seh_pushreg	%rbp
	movq	%rsp, %rbp
	.seh_setframe	%rbp, 0
	subq	$32, %rsp
	.seh_stackalloc	32
	.seh_endprologue
	movq	%rcx, 16(%rbp)
	movq	16(%rbp), %rax
	movq	%rax, %rcx
	call	_ZNKSt15__new_allocatorINSt7__cxx1112basic_stringIcSt11char_traitsIcESaIcEEEE8max_sizeEv
	addq	$32, %rsp
	popq	%rbp
	ret
	.seh_endproc
	.section	.text$_ZSt3minIyERKT_S2_S2_,"x"
	.linkonce discard
	.globl	_ZSt3minIyERKT_S2_S2_
	.def	_ZSt3minIyERKT_S2_S2_;	.scl	2;	.type	32;	.endef
	.seh_proc	_ZSt3minIyERKT_S2_S2_
_ZSt3minIyERKT_S2_S2_:
.LFB2862:
	pushq	%rbp
	.seh_pushreg	%rbp
	movq	%rsp, %rbp
	.seh_setframe	%rbp, 0
	.seh_endprologue
	movq	%rcx, 16(%rbp)
	movq	%rdx, 24(%rbp)
	movq	24(%rbp), %rax
	movq	(%rax), %rdx
	movq	16(%rbp), %rax
	movq	(%rax), %rax
	cmpq	%rax, %rdx
	jnb	.L204
	movq	24(%rbp), %rax
	jmp	.L205
.L204:
	movq	16(%rbp), %rax
.L205:
	popq	%rbp
	ret
	.seh_endproc
	.section	.text$_ZNKSt15__new_allocatorINSt7__cxx1112basic_stringIcSt11char_traitsIcESaIcEEEE11_M_max_sizeEv,"x"
	.linkonce discard
	.align 2
	.globl	_ZNKSt15__new_allocatorINSt7__cxx1112basic_stringIcSt11char_traitsIcESaIcEEEE11_M_max_sizeEv
	.def	_ZNKSt15__new_allocatorINSt7__cxx1112basic_stringIcSt11char_traitsIcESaIcEEEE11_M_max_sizeEv;	.scl	2;	.type	32;	.endef
	.seh_proc	_ZNKSt15__new_allocatorINSt7__cxx1112basic_stringIcSt11char_traitsIcESaIcEEEE11_M_max_sizeEv
_ZNKSt15__new_allocatorINSt7__cxx1112basic_stringIcSt11char_traitsIcESaIcEEEE11_M_max_sizeEv:
.LFB2863:
	pushq	%rbp
	.seh_pushreg	%rbp
	movq	%rsp, %rbp
	.seh_setframe	%rbp, 0
	.seh_endprologue
	movq	%rcx, 16(%rbp)
	movabsq	$288230376151711743, %rax
	popq	%rbp
	ret
	.seh_endproc
	.section	.text$_ZSt19__relocate_object_aINSt7__cxx1112basic_stringIcSt11char_traitsIcESaIcEEES5_SaIS5_EEvPT_PT0_RT1_,"x"
	.linkonce discard
	.globl	_ZSt19__relocate_object_aINSt7__cxx1112basic_stringIcSt11char_traitsIcESaIcEEES5_SaIS5_EEvPT_PT0_RT1_
	.def	_ZSt19__relocate_object_aINSt7__cxx1112basic_stringIcSt11char_traitsIcESaIcEEES5_SaIS5_EEvPT_PT0_RT1_;	.scl	2;	.type	32;	.endef
	.seh_proc	_ZSt19__relocate_object_aINSt7__cxx1112basic_stringIcSt11char_traitsIcESaIcEEES5_SaIS5_EEvPT_PT0_RT1_
_ZSt19__relocate_object_aINSt7__cxx1112basic_stringIcSt11char_traitsIcESaIcEEES5_SaIS5_EEvPT_PT0_RT1_:
.LFB2864:
	pushq	%rbp
	.seh_pushreg	%rbp
	movq	%rsp, %rbp
	.seh_setframe	%rbp, 0
	subq	$32, %rsp
	.seh_stackalloc	32
	.seh_endprologue
	movq	%rcx, 16(%rbp)
	movq	%rdx, 24(%rbp)
	movq	%r8, 32(%rbp)
	movq	24(%rbp), %rax
	movq	%rax, %rcx
	call	_ZSt4moveIRNSt7__cxx1112basic_stringIcSt11char_traitsIcESaIcEEEEONSt16remove_referenceIT_E4typeEOS8_
	movq	%rax, %rcx
	movq	16(%rbp), %rdx
	movq	32(%rbp), %rax
	movq	%rcx, %r8
	movq	%rax, %rcx
	call	_ZNSt16allocator_traitsISaINSt7__cxx1112basic_stringIcSt11char_traitsIcESaIcEEEEE9constructIS5_JS5_EEEvRS6_PT_DpOT0_
	movq	24(%rbp), %rax
	movq	%rax, %rcx
	call	_ZSt11__addressofINSt7__cxx1112basic_stringIcSt11char_traitsIcESaIcEEEEPT_RS6_
	movq	%rax, %rdx
	movq	32(%rbp), %rax
	movq	%rax, %rcx
	call	_ZNSt16allocator_traitsISaINSt7__cxx1112basic_stringIcSt11char_traitsIcESaIcEEEEE7destroyIS5_EEvRS6_PT_
	nop
	addq	$32, %rsp
	popq	%rbp
	ret
	.seh_endproc
	.section	.text$_ZNK9__gnu_cxx17__normal_iteratorIPKNSt7__cxx1112basic_stringIcSt11char_traitsIcESaIcEEESt6vectorIS6_SaIS6_EEE4baseEv,"x"
	.linkonce discard
	.align 2
	.globl	_ZNK9__gnu_cxx17__normal_iteratorIPKNSt7__cxx1112basic_stringIcSt11char_traitsIcESaIcEEESt6vectorIS6_SaIS6_EEE4baseEv
	.def	_ZNK9__gnu_cxx17__normal_iteratorIPKNSt7__cxx1112basic_stringIcSt11char_traitsIcESaIcEEESt6vectorIS6_SaIS6_EEE4baseEv;	.scl	2;	.type	32;	.endef
	.seh_proc	_ZNK9__gnu_cxx17__normal_iteratorIPKNSt7__cxx1112basic_stringIcSt11char_traitsIcESaIcEEESt6vectorIS6_SaIS6_EEE4baseEv
_ZNK9__gnu_cxx17__normal_iteratorIPKNSt7__cxx1112basic_stringIcSt11char_traitsIcESaIcEEESt6vectorIS6_SaIS6_EEE4baseEv:
.LFB2865:
	pushq	%rbp
	.seh_pushreg	%rbp
	movq	%rsp, %rbp
	.seh_setframe	%rbp, 0
	.seh_endprologue
	movq	%rcx, 16(%rbp)
	movq	16(%rbp), %rax
	popq	%rbp
	ret
	.seh_endproc
	.section	.text$_ZSt7forwardIRKNSt7__cxx1112basic_stringIcSt11char_traitsIcESaIcEEEEOT_RNSt16remove_referenceIS8_E4typeE,"x"
	.linkonce discard
	.globl	_ZSt7forwardIRKNSt7__cxx1112basic_stringIcSt11char_traitsIcESaIcEEEEOT_RNSt16remove_referenceIS8_E4typeE
	.def	_ZSt7forwardIRKNSt7__cxx1112basic_stringIcSt11char_traitsIcESaIcEEEEOT_RNSt16remove_referenceIS8_E4typeE;	.scl	2;	.type	32;	.endef
	.seh_proc	_ZSt7forwardIRKNSt7__cxx1112basic_stringIcSt11char_traitsIcESaIcEEEEOT_RNSt16remove_referenceIS8_E4typeE
_ZSt7forwardIRKNSt7__cxx1112basic_stringIcSt11char_traitsIcESaIcEEEEOT_RNSt16remove_referenceIS8_E4typeE:
.LFB2866:
	pushq	%rbp
	.seh_pushreg	%rbp
	movq	%rsp, %rbp
	.seh_setframe	%rbp, 0
	.seh_endprologue
	movq	%rcx, 16(%rbp)
	movq	16(%rbp), %rax
	popq	%rbp
	ret
	.seh_endproc
	.section	.text$_ZNKSt15__new_allocatorINSt7__cxx1112basic_stringIcSt11char_traitsIcESaIcEEEE8max_sizeEv,"x"
	.linkonce discard
	.align 2
	.globl	_ZNKSt15__new_allocatorINSt7__cxx1112basic_stringIcSt11char_traitsIcESaIcEEEE8max_sizeEv
	.def	_ZNKSt15__new_allocatorINSt7__cxx1112basic_stringIcSt11char_traitsIcESaIcEEEE8max_sizeEv;	.scl	2;	.type	32;	.endef
	.seh_proc	_ZNKSt15__new_allocatorINSt7__cxx1112basic_stringIcSt11char_traitsIcESaIcEEEE8max_sizeEv
_ZNKSt15__new_allocatorINSt7__cxx1112basic_stringIcSt11char_traitsIcESaIcEEEE8max_sizeEv:
.LFB2867:
	pushq	%rbp
	.seh_pushreg	%rbp
	movq	%rsp, %rbp
	.seh_setframe	%rbp, 0
	subq	$32, %rsp
	.seh_stackalloc	32
	.seh_endprologue
	movq	%rcx, 16(%rbp)
	movq	16(%rbp), %rax
	movq	%rax, %rcx
	call	_ZNKSt15__new_allocatorINSt7__cxx1112basic_stringIcSt11char_traitsIcESaIcEEEE11_M_max_sizeEv
	addq	$32, %rsp
	popq	%rbp
	ret
	.seh_endproc
	.text
	.def	__tcf_0;	.scl	3;	.type	32;	.endef
	.seh_proc	__tcf_0
__tcf_0:
.LFB2869:
	pushq	%rbp
	.seh_pushreg	%rbp
	movq	%rsp, %rbp
	.seh_setframe	%rbp, 0
	subq	$32, %rsp
	.seh_stackalloc	32
	.seh_endprologue
	leaq	_ZStL8__ioinit(%rip), %rax
	movq	%rax, %rcx
	call	_ZNSt8ios_base4InitD1Ev
	nop
	addq	$32, %rsp
	popq	%rbp
	ret
	.seh_endproc
	.def	_Z41__static_initialization_and_destruction_0ii;	.scl	3;	.type	32;	.endef
	.seh_proc	_Z41__static_initialization_and_destruction_0ii
_Z41__static_initialization_and_destruction_0ii:
.LFB2868:
	pushq	%rbp
	.seh_pushreg	%rbp
	movq	%rsp, %rbp
	.seh_setframe	%rbp, 0
	subq	$32, %rsp
	.seh_stackalloc	32
	.seh_endprologue
	movl	%ecx, 16(%rbp)
	movl	%edx, 24(%rbp)
	cmpl	$1, 16(%rbp)
	jne	.L218
	cmpl	$65535, 24(%rbp)
	jne	.L218
	leaq	_ZStL8__ioinit(%rip), %rax
	movq	%rax, %rcx
	call	_ZNSt8ios_base4InitC1Ev
	leaq	__tcf_0(%rip), %rax
	movq	%rax, %rcx
	call	atexit
.L218:
	nop
	addq	$32, %rsp
	popq	%rbp
	ret
	.seh_endproc
	.def	_GLOBAL__sub_I_main;	.scl	3;	.type	32;	.endef
	.seh_proc	_GLOBAL__sub_I_main
_GLOBAL__sub_I_main:
.LFB2870:
	pushq	%rbp
	.seh_pushreg	%rbp
	movq	%rsp, %rbp
	.seh_setframe	%rbp, 0
	subq	$32, %rsp
	.seh_stackalloc	32
	.seh_endprologue
	movl	$65535, %edx
	movl	$1, %ecx
	call	_Z41__static_initialization_and_destruction_0ii
	nop
	addq	$32, %rsp
	popq	%rbp
	ret
	.seh_endproc
	.section	.ctors,"w"
	.align 8
	.quad	_GLOBAL__sub_I_main
	.ident	"GCC: (Rev10, Built by MSYS2 project) 12.2.0"
	.def	strlen;	.scl	2;	.type	32;	.endef
	.def	_ZNSaIcEC1Ev;	.scl	2;	.type	32;	.endef
	.def	_ZNSt7__cxx1112basic_stringIcSt11char_traitsIcESaIcEED1Ev;	.scl	2;	.type	32;	.endef
	.def	_ZNSaIcED1Ev;	.scl	2;	.type	32;	.endef
	.def	_ZN9Installer4MenuC1ESt6vectorINSt7__cxx1112basic_stringIcSt11char_traitsIcESaIcEEESaIS7_EES9_;	.scl	2;	.type	32;	.endef
	.def	_ZNSirsERi;	.scl	2;	.type	32;	.endef
	.def	_Unwind_Resume;	.scl	2;	.type	32;	.endef
	.def	_ZNSaIcED2Ev;	.scl	2;	.type	32;	.endef
	.def	_ZNSt7__cxx1112basic_stringIcSt11char_traitsIcESaIcEE13_M_local_dataEv;	.scl	2;	.type	32;	.endef
	.def	_ZNSt7__cxx1112basic_stringIcSt11char_traitsIcESaIcEE12_Alloc_hiderC1EPcRKS3_;	.scl	2;	.type	32;	.endef
	.def	_ZSt19__throw_logic_errorPKc;	.scl	2;	.type	32;	.endef
	.def	_ZNSt7__cxx1112basic_stringIcSt11char_traitsIcESaIcEE10_M_disposeEv;	.scl	2;	.type	32;	.endef
	.def	_ZNSt7__cxx1112basic_stringIcSt11char_traitsIcESaIcEE9_M_createERyy;	.scl	2;	.type	32;	.endef
	.def	_ZNSt7__cxx1112basic_stringIcSt11char_traitsIcESaIcEE7_M_dataEPc;	.scl	2;	.type	32;	.endef
	.def	_ZNSt7__cxx1112basic_stringIcSt11char_traitsIcESaIcEE11_M_capacityEy;	.scl	2;	.type	32;	.endef
	.def	_ZNKSt7__cxx1112basic_stringIcSt11char_traitsIcESaIcEE7_M_dataEv;	.scl	2;	.type	32;	.endef
	.def	_ZNSt7__cxx1112basic_stringIcSt11char_traitsIcESaIcEE13_S_copy_charsEPcPKcS7_;	.scl	2;	.type	32;	.endef
	.def	_ZNSt7__cxx1112basic_stringIcSt11char_traitsIcESaIcEE13_M_set_lengthEy;	.scl	2;	.type	32;	.endef
	.def	_ZdlPvy;	.scl	2;	.type	32;	.endef
	.def	_ZNSt7__cxx1112basic_stringIcSt11char_traitsIcESaIcEEC1EOS4_;	.scl	2;	.type	32;	.endef
	.def	_ZSt20__throw_length_errorPKc;	.scl	2;	.type	32;	.endef
	.def	__cxa_begin_catch;	.scl	2;	.type	32;	.endef
	.def	__cxa_rethrow;	.scl	2;	.type	32;	.endef
	.def	__cxa_end_catch;	.scl	2;	.type	32;	.endef
	.def	_ZSt28__throw_bad_array_new_lengthv;	.scl	2;	.type	32;	.endef
	.def	_ZSt17__throw_bad_allocv;	.scl	2;	.type	32;	.endef
	.def	_Znwy;	.scl	2;	.type	32;	.endef
	.def	_ZNSt7__cxx1112basic_stringIcSt11char_traitsIcESaIcEEC1ERKS4_;	.scl	2;	.type	32;	.endef
	.def	_ZNSt8ios_base4InitD1Ev;	.scl	2;	.type	32;	.endef
	.def	_ZNSt8ios_base4InitC1Ev;	.scl	2;	.type	32;	.endef
	.def	atexit;	.scl	2;	.type	32;	.endef
	.section	.rdata$.refptr._ZSt3cin, "dr"
	.globl	.refptr._ZSt3cin
	.linkonce	discard
.refptr._ZSt3cin:
	.quad	_ZSt3cin
